(dp1
S'output'
p2
S"<class 'sqlite3.IntegrityError'> FOREIGN KEY constraint failed"
p3
sS'layer'
p4
S'/Users/vqt3dot14/Documents/loveslug/web2py/applications/loveslug/controllers/default.py'
p5
sS'code'
p6
S'# -*- coding: utf-8 -*-\n# this file is released under public domain and you can use without limitations\n\n#########################################################################\n## This is a sample controller\n## - index is the default action of any application\n## - user is required for authentication and authorization\n## - download is for downloading files uploaded in the db (does streaming)\n#########################################################################\nfrom random import randint\nimport datetime\n\ndateTips =  [   "You miss 100% of the shots you don\'t take... [Wayne Gretzky]",\n                "Shit happens... [Life]",\n                "A fluke is one of the most common fish in the sea, so if you go fishing for a fluke, chances are you just might catch one... [Kevin Malone]",\n                "To find a prince, you gotta kiss some toads... [Foxy Brown]",\n                "You must search well enough, to find the answers... [Lailah Gifty Akita]",\n                "To live, to TRULY live, we must be willing to RISK... [Mandy Hale]", \n                "It\'s hard to believe in coincidence, but it\'s even harder to believe in anything else... [John Green]",\n                "The doors will be opened to those who are bold enough to knock...",\n                "Life has no remote. Get up and change it yourself...",\n                "All glory comes from a daring to begin...",\n                "You are not born a winner; you are not born a loser. You are born a chooser...",\n                "Now is your chance to make a move!",\n            ]\n\nprofTips =  [   "People see your picture before hellos. Be sure to take a good picture!",\n                "Keep it simple and mysterious!",\n                "What most interests you? What are your hobbies?",\n                "Don\'t leave your profile empty!",\n            ]\n\ndef index():\n    #display\n    profile = db().select(db.person.user_id, db.person.image, db.person.your_name, db.person.college, db.person.birthday, db.person.seeking_a, db.person.gender)\n    myprofile = db(db.person.user_id == auth.user).select()\n    return dict(myprofile=myprofile, form=auth(), profile=profile)\n\ndef matches():\n    thisprofile = db(db.person.user_id == auth.user).select()\n    matches = db.select(db.person.seeking_a == this.profile.gender)\n    return dict(thisprofile=thisprofile, matches=matches)\n\ndef messages():\n    return dict()\n\ndef get_messages():\n    \'\'\'This will return all emails that the user has sent or received -cole \'\'\'\n    rec_rows = db(db.email.receiver==auth.user_id).select(orderby=db.email.sent)\n\n    d1 = {r.message_id: {\n        \'sender\':r.sender,\n        \'receiver\':r.receiver,\n        \'body\':r.body,\n        \'subject\':r.subject,\n        \'seen\':r.seen,\n        \'message_id\':r.message_id,\n        \'sent\':r.sent}\n          for r in rec_rows}\n\n    sent_rows = db(db.email.sender==auth.user_id).select(orderby=db.email.sent)\n\n    d2 = {r.message_id: {\n        \'sender\':r.sender,\n        \'receiver\':r.receiver,\n        \'body\':r.body,\n        \'subject\':r.subject,\n        \'seen\':r.seen,\n        \'message_id\':r.message_id,\n        \'sent\':r.sent }\n          for r in sent_rows}\n\n    return response.json(dict(rec_messages=d1, sent_messages=d2))\n\n\ndef send_message():\n    \'\'\'Sends a new message \'\'\'\n    db.email.update_or_insert((db.email.message_id == request.vars.message_id),\n            message_id=request.vars.message_id,\n            sender=auth.user_id,\n            receiver=request.vars.receiver,\n            body=request.vars.body,\n            subject=request.vars.subject,\n            seen=False,\n            sent=datetime.datetime.now())\n    return "ok"\n\ndef chat():\n    \'\'\'This will return all chats that the user has sent or received -cole \'\'\'\n    recChats = db(db.chat.receiver==auth.user_id).select()\n    sentChats = db(db.chat.sender==auth.user_id).select()\n    return dict(sentChats=sentChats, recChats=recChats)\n\ndef settings():\n    profile = db(db.preferences.user_id == auth.user).select().first()\n    print profile\n    form = SQLFORM(db.preferences,\n                   fields=[\n                       \'male\',\n                       \'female\',\n                   ],\n                   record=profile\n                   )\n    form.vars.setdefault(\'user_id\', auth.user)\n    if form.process().accepted:\n        session.flash = T(\'Your settings have been updated\')\n        redirect(URL(\'default\', \'settings\'))\n    return dict(form=form)\n\ndef myprofile():\n    thisprofile = db(db.person.user_id == auth.user).select()\n    if db.person.user_id.validate(auth.user)[1] != None:\n        session.flash = T(\'You have to update your profile first!\')\n        redirect(URL(\'editprofile\'))\n    return dict(thisprofile=thisprofile)\n\ndef profile():\n    profile_id = db.person(request.args(0))\n    thisprofile = db(db.person.user_id == profile_id).select()\n    return dict(thisprofile=thisprofile)\n\n\ndef editprofile():\n    profile = db(db.person.user_id == auth.user).select().first()\n    print profile\n    form = SQLFORM(db.person,\n                   fields=[\n                       \'image\',\n                       \'your_name\',\n                       \'birthday\',\n                       \'gender\',\n                       \'seeking_a\',\n                       \'about_me\',\n                       \'interests\',\n                       \'major\',\n                       \'college\'\n                   ],\n                   record=profile)\n    form.vars.setdefault(\'user_id\', auth.user)\n    if form.process().accepted:\n        session.flash = T(\'Your profile has been updated\')\n        redirect(URL(\'default\', \'editprofile\'))\n    return dict(form=form)\n\n#JOSH\'S TIP SECTION YAY.\ndef loadTips():\n    """\n    0 = profile tips\n    1 = dating tips\n    """\n    if request.args(0) is "0":\n        return response.json(dict(tip_dict=profTips))\n    else:\n        return response.json(dict(tip_dict=dateTips))\n\n\ndef selRandTip():\n    """\n    0 = profile tips\n    1 = dating tips\n    """\n    if request.args(0) is "0":\n        x = randint(0, len(profTips)-1)\n        return profTips[x]\n    else:\n        x = randint(0, len(dateTips)-1)\n        return dateTips[x]\n\n\n\ndef user():\n    """\n    exposes:\n    http://..../[app]/default/user/login\n    http://..../[app]/default/user/logout\n    http://..../[app]/default/user/register\n    http://..../[app]/default/user/profile\n    http://..../[app]/default/user/retrieve_password\n    http://..../[app]/default/user/change_password\n    http://..../[app]/default/user/manage_users (requires membership in\n    http://..../[app]/default/user/bulk_register\n    use @auth.requires_login()\n        @auth.requires_membership(\'group name\')\n        @auth.requires_permission(\'read\',\'table name\',record_id)\n    to decorate functions that need access control\n    """\n    return dict(form=auth())\n\n\n@cache.action()\ndef download():\n    """\n    allows downloading of uploaded files\n    http://..../[app]/default/download/[filename]\n    """\n    return response.download(request, db)\n\n\ndef call():\n    """\n    exposes services. for example:\n    http://..../[app]/default/call/jsonrpc\n    decorate with @services.jsonrpc the functions to expose\n    supports xml, json, xmlrpc, jsonrpc, amfrpc, rss, csv\n    """\n    return service()\n\n\ndef reset_db():\n    db.person.truncate()\n    db.chat.truncate()\n    db.email.truncate()\n    db.auth_user.truncate()\n    db.commit()\n    return "ok"\n\ndef drop_db():\n    db.person.drop()\n    db.chat.drop()\n    db.email.drop()\n    db.commit()\n    return "ok"\n\nresponse._vars=response._caller(editprofile)\n'
p7
sS'snapshot'
p8
(dp9
S'exception'
p10
(dp11
S'__module__'
p12
S"'sqlite3'"
p13
sS'__getslice__'
p14
S"<method-wrapper '__getslice__' of IntegrityError object>"
p15
sS'__str__'
p16
S"<method-wrapper '__str__' of IntegrityError object>"
p17
sS'__reduce__'
p18
S'<built-in method __reduce__ of IntegrityError object>'
p19
sS'__dict__'
p20
S'{}'
p21
sS'__sizeof__'
p22
S'<built-in method __sizeof__ of IntegrityError object>'
p23
sS'__weakref__'
p24
S'None'
p25
sS'__init__'
p26
S"<method-wrapper '__init__' of IntegrityError object>"
p27
sS'__setattr__'
p28
S"<method-wrapper '__setattr__' of IntegrityError object>"
p29
sS'__reduce_ex__'
p30
S'<built-in method __reduce_ex__ of IntegrityError object>'
p31
sS'__new__'
p32
S'<built-in method __new__ of type object>'
p33
sS'__format__'
p34
S'<built-in method __format__ of IntegrityError object>'
p35
sS'__class__'
p36
S"<class 'sqlite3.IntegrityError'>"
p37
sS'__doc__'
p38
S'None'
p39
sS'__getitem__'
p40
S"<method-wrapper '__getitem__' of IntegrityError object>"
p41
sS'__setstate__'
p42
S'<built-in method __setstate__ of IntegrityError object>'
p43
sS'__getattribute__'
p44
S"<method-wrapper '__getattribute__' of IntegrityError object>"
p45
sS'args'
p46
S"('FOREIGN KEY constraint failed',)"
p47
sS'__subclasshook__'
p48
S'<built-in method __subclasshook__ of type object>'
p49
sS'__unicode__'
p50
S'<built-in method __unicode__ of IntegrityError object>'
p51
sS'__delattr__'
p52
S"<method-wrapper '__delattr__' of IntegrityError object>"
p53
sS'__repr__'
p54
S"<method-wrapper '__repr__' of IntegrityError object>"
p55
sS'__hash__'
p56
S"<method-wrapper '__hash__' of IntegrityError object>"
p57
ssS'evalue'
p58
S'FOREIGN KEY constraint failed'
p59
sS'request'
p60
cgluon.html
XML_unpickle
p61
(S's\xbfk\x00\x00<div><table><tr><td style="font-weight:bold;vertical-align:top;">ajax</td><td style="vertical-align:top;">:</td><td><div>False</div></td></tr><tr><td style="font-weight:bold;vertical-align:top;">application</td><td style="vertical-align:top;">:</td><td><div>loveslug</div></td></tr><tr><td style="font-weight:bold;vertical-align:top;">args</td><td style="vertical-align:top;">:</td><td><div><table></table></div></td></tr><tr><td style="font-weight:bold;vertical-align:top;">cid</td><td style="vertical-align:top;">:</td><td><div>None</div></td></tr><tr><td style="font-weight:bold;vertical-align:top;">client</td><td style="vertical-align:top;">:</td><td><div>127.0.0.1</div></td></tr><tr><td style="font-weight:bold;vertical-align:top;">controller</td><td style="vertical-align:top;">:</td><td><div>default</div></td></tr><tr><td style="font-weight:bold;vertical-align:top;">cookies</td><td style="vertical-align:top;">:</td><td><div><table><tr><td style="font-weight:bold;vertical-align:top;">session_id_admin</td><td style="vertical-align:top;">:</td><td><div>127.0.0.1-e803429e-0b76-482c-b1ee-6ac2a0420724<table><tr><td style="font-weight:bold;vertical-align:top;">comment</td><td style="vertical-align:top;">:</td><td><div></div></td></tr><tr><td style="font-weight:bold;vertical-align:top;">domain</td><td style="vertical-align:top;">:</td><td><div></div></td></tr><tr><td style="font-weight:bold;vertical-align:top;">expires</td><td style="vertical-align:top;">:</td><td><div></div></td></tr><tr><td style="font-weight:bold;vertical-align:top;">httponly</td><td style="vertical-align:top;">:</td><td><div></div></td></tr><tr><td style="font-weight:bold;vertical-align:top;">max-age</td><td style="vertical-align:top;">:</td><td><div></div></td></tr><tr><td style="font-weight:bold;vertical-align:top;">path</td><td style="vertical-align:top;">:</td><td><div></div></td></tr><tr><td style="font-weight:bold;vertical-align:top;">secure</td><td style="vertical-align:top;">:</td><td><div></div></td></tr><tr><td style="font-weight:bold;vertical-align:top;">version</td><td style="vertical-align:top;">:</td><td><div></div></td></tr></table></div></td></tr><tr><td style="font-weight:bold;vertical-align:top;">session_id_e1</td><td style="vertical-align:top;">:</td><td><div>127.0.0.1-3071120b-9870-45e1-9b65-cf3533275cdf<table><tr><td style="font-weight:bold;vertical-align:top;">comment</td><td style="vertical-align:top;">:</td><td><div></div></td></tr><tr><td style="font-weight:bold;vertical-align:top;">domain</td><td style="vertical-align:top;">:</td><td><div></div></td></tr><tr><td style="font-weight:bold;vertical-align:top;">expires</td><td style="vertical-align:top;">:</td><td><div></div></td></tr><tr><td style="font-weight:bold;vertical-align:top;">httponly</td><td style="vertical-align:top;">:</td><td><div></div></td></tr><tr><td style="font-weight:bold;vertical-align:top;">max-age</td><td style="vertical-align:top;">:</td><td><div></div></td></tr><tr><td style="font-weight:bold;vertical-align:top;">path</td><td style="vertical-align:top;">:</td><td><div></div></td></tr><tr><td style="font-weight:bold;vertical-align:top;">secure</td><td style="vertical-align:top;">:</td><td><div></div></td></tr><tr><td style="font-weight:bold;vertical-align:top;">version</td><td style="vertical-align:top;">:</td><td><div></div></td></tr></table></div></td></tr><tr><td style="font-weight:bold;vertical-align:top;">session_id_loveslug</td><td style="vertical-align:top;">:</td><td><div>127.0.0.1-b084931b-1d38-4538-91c2-5c86fbacf19a<table><tr><td style="font-weight:bold;vertical-align:top;">comment</td><td style="vertical-align:top;">:</td><td><div></div></td></tr><tr><td style="font-weight:bold;vertical-align:top;">domain</td><td style="vertical-align:top;">:</td><td><div></div></td></tr><tr><td style="font-weight:bold;vertical-align:top;">expires</td><td style="vertical-align:top;">:</td><td><div></div></td></tr><tr><td style="font-weight:bold;vertical-align:top;">httponly</td><td style="vertical-align:top;">:</td><td><div></div></td></tr><tr><td style="font-weight:bold;vertical-align:top;">max-age</td><td style="vertical-align:top;">:</td><td><div></div></td></tr><tr><td style="font-weight:bold;vertical-align:top;">path</td><td style="vertical-align:top;">:</td><td><div></div></td></tr><tr><td style="font-weight:bold;vertical-align:top;">secure</td><td style="vertical-align:top;">:</td><td><div></div></td></tr><tr><td style="font-weight:bold;vertical-align:top;">version</td><td style="vertical-align:top;">:</td><td><div></div></td></tr></table></div></td></tr><tr><td style="font-weight:bold;vertical-align:top;">session_id_welcome</td><td style="vertical-align:top;">:</td><td><div>127.0.0.1-3dd6813c-a8ef-4728-9fb7-091106c21973<table><tr><td style="font-weight:bold;vertical-align:top;">comment</td><td style="vertical-align:top;">:</td><td><div></div></td></tr><tr><td style="font-weight:bold;vertical-align:top;">domain</td><td style="vertical-align:top;">:</td><td><div></div></td></tr><tr><td style="font-weight:bold;vertical-align:top;">expires</td><td style="vertical-align:top;">:</td><td><div></div></td></tr><tr><td style="font-weight:bold;vertical-align:top;">httponly</td><td style="vertical-align:top;">:</td><td><div></div></td></tr><tr><td style="font-weight:bold;vertical-align:top;">max-age</td><td style="vertical-align:top;">:</td><td><div></div></td></tr><tr><td style="font-weight:bold;vertical-align:top;">path</td><td style="vertical-align:top;">:</td><td><div></div></td></tr><tr><td style="font-weight:bold;vertical-align:top;">secure</td><td style="vertical-align:top;">:</td><td><div></div></td></tr><tr><td style="font-weight:bold;vertical-align:top;">version</td><td style="vertical-align:top;">:</td><td><div></div></td></tr></table></div></td></tr></table></div></td></tr><tr><td style="font-weight:bold;vertical-align:top;">env</td><td style="vertical-align:top;">:</td><td><div><table><tr><td style="font-weight:bold;vertical-align:top;">CONTENT_LENGTH</td><td style="vertical-align:top;">:</td><td><div>619791</div></td></tr><tr><td style="font-weight:bold;vertical-align:top;">CONTENT_TYPE</td><td style="vertical-align:top;">:</td><td><div>multipart/form-data; boundary=----WebKitFormBoundaryonr8OAIxf1KDKnvA</div></td></tr><tr><td style="font-weight:bold;vertical-align:top;">HTTP_ACCEPT</td><td style="vertical-align:top;">:</td><td><div>text/html,application/xhtml+xml,application/xml;q=0.9,image/webp,*/*;q=0.8</div></td></tr><tr><td style="font-weight:bold;vertical-align:top;">HTTP_ACCEPT_ENCODING</td><td style="vertical-align:top;">:</td><td><div>gzip, deflate</div></td></tr><tr><td style="font-weight:bold;vertical-align:top;">HTTP_ACCEPT_LANGUAGE</td><td style="vertical-align:top;">:</td><td><div>en-US,en;q=0.8,zh-CN;q=0.6,zh;q=0.4</div></td></tr><tr><td style="font-weight:bold;vertical-align:top;">HTTP_CACHE_CONTROL</td><td style="vertical-align:top;">:</td><td><div>no-cache</div></td></tr><tr><td style="font-weight:bold;vertical-align:top;">HTTP_CONNECTION</td><td style="vertical-align:top;">:</td><td><div>keep-alive</div></td></tr><tr><td style="font-weight:bold;vertical-align:top;">HTTP_CONTENT_LENGTH</td><td style="vertical-align:top;">:</td><td><div>619791</div></td></tr><tr><td style="font-weight:bold;vertical-align:top;">HTTP_CONTENT_TYPE</td><td style="vertical-align:top;">:</td><td><div>multipart/form-data; boundary=----WebKitFormBoundaryonr8OAIxf1KDKnvA</div></td></tr><tr><td style="font-weight:bold;vertical-align:top;">HTTP_COOKIE</td><td style="vertical-align:top;">:</td><td><div>session_id_e1=127.0.0.1-3071120b-9870-45e1-9b65-cf3533275cdf; session_id_welcome=127.0.0.1-3dd6813c-a8ef-4728-9fb7-091106c21973; session_id_admin=127.0.0.1-e803429e-0b76-482c-b1ee-6ac2a0420724; session_id_loveslug=127.0.0.1-b084931b-1d38-4538-91c2-5c86fbacf19a</div></td></tr><tr><td style="font-weight:bold;vertical-align:top;">HTTP_HOST</td><td style="vertical-align:top;">:</td><td><div>127.0.0.1:8000</div></td></tr><tr><td style="font-weight:bold;vertical-align:top;">HTTP_ORIGIN</td><td style="vertical-align:top;">:</td><td><div>http://127.0.0.1:8000</div></td></tr><tr><td style="font-weight:bold;vertical-align:top;">HTTP_PRAGMA</td><td style="vertical-align:top;">:</td><td><div>no-cache</div></td></tr><tr><td style="font-weight:bold;vertical-align:top;">HTTP_REFERER</td><td style="vertical-align:top;">:</td><td><div>http://127.0.0.1:8000/loveslug/default/editprofile</div></td></tr><tr><td style="font-weight:bold;vertical-align:top;">HTTP_UPGRADE_INSECURE_REQUESTS</td><td style="vertical-align:top;">:</td><td><div>1</div></td></tr><tr><td style="font-weight:bold;vertical-align:top;">HTTP_USER_AGENT</td><td style="vertical-align:top;">:</td><td><div>Mozilla/5.0 (Macintosh; Intel Mac OS X 10_10_5) AppleWebKit/537.36 (KHTML, like Gecko) Chrome/47.0.2526.73 Safari/537.36</div></td></tr><tr><td style="font-weight:bold;vertical-align:top;">PATH_INFO</td><td style="vertical-align:top;">:</td><td><div>/loveslug/default/editprofile</div></td></tr><tr><td style="font-weight:bold;vertical-align:top;">QUERY_STRING</td><td style="vertical-align:top;">:</td><td><div></div></td></tr><tr><td style="font-weight:bold;vertical-align:top;">REMOTE_ADDR</td><td style="vertical-align:top;">:</td><td><div>127.0.0.1</div></td></tr><tr><td style="font-weight:bold;vertical-align:top;">REMOTE_PORT</td><td style="vertical-align:top;">:</td><td><div>59038</div></td></tr><tr><td style="font-weight:bold;vertical-align:top;">REQUEST_METHOD</td><td style="vertical-align:top;">:</td><td><div>POST</div></td></tr><tr><td style="font-weight:bold;vertical-align:top;">SCRIPT_NAME</td><td style="vertical-align:top;">:</td><td><div></div></td></tr><tr><td style="font-weight:bold;vertical-align:top;">SERVER_NAME</td><td style="vertical-align:top;">:</td><td><div>Vis-MacBook-Air</div></td></tr><tr><td style="font-weight:bold;vertical-align:top;">SERVER_PORT</td><td style="vertical-align:top;">:</td><td><div>8000</div></td></tr><tr><td style="font-weight:bold;vertical-align:top;">SERVER_PROTOCOL</td><td style="vertical-align:top;">:</td><td><div>HTTP/1.1</div></td></tr><tr><td style="font-weight:bold;vertical-align:top;">SERVER_SOFTWARE</td><td style="vertical-align:top;">:</td><td><div>Rocket 1.2.6</div></td></tr><tr><td style="font-weight:bold;vertical-align:top;">app_folders</td><td style="vertical-align:top;">:</td><td><div>set([&#x27;/Users/vqt3dot14/Documents/loveslug/web2py/applications/welcome/&#x27;, &#x27;/Users/vqt3dot14/Documents/loveslug/web2py/applications/loveslug/&#x27;, &#x27;/Users/vqt3dot14/Documents/loveslug/web2py/applications/admin/&#x27;])</div></td></tr><tr><td style="font-weight:bold;vertical-align:top;">applications_parent</td><td style="vertical-align:top;">:</td><td><div>/Users/vqt3dot14/Documents/loveslug/web2py</div></td></tr><tr><td style="font-weight:bold;vertical-align:top;">cmd_args</td><td style="vertical-align:top;">:</td><td><div><table></table></div></td></tr><tr><td style="font-weight:bold;vertical-align:top;">cmd_options</td><td style="vertical-align:top;">:</td><td><div>&lt;Values at 0x1079603f8: {&#x27;verbose&#x27;: False, &#x27;ip&#x27;: &#x27;127.0.0.1&#x27;, &#x27;debuglevel&#x27;: 30, &#x27;with_scheduler&#x27;: False, &#x27;ips&#x27;: [], &#x27;shutdown_timeout&#x27;: 5, &#x27;taskbar&#x27;: False, &#x27;with_coverage&#x27;: False, &#x27;scheduler_groups&#x27;: None, &#x27;port&#x27;: 8000, &#x27;maxthreads&#x27;: None, &#x27;softcron&#x27;: False, &#x27;server_name&#x27;: &#x27;Vis-MacBook-Air&#x27;, &#x27;bpython&#x27;: False, &#x27;nogui&#x27;: False, &#x27;pid_filename&#x27;: &#x27;httpserver.pid&#x27;, &#x27;print_errors&#x27;: False, &#x27;extcron&#x27;: False, &#x27;runcron&#x27;: False, &#x27;run_system_tests&#x27;: False, &#x27;test&#x27;: None, &#x27;folder&#x27;: &#x27;/Users/vqt3dot14/Documents/loveslug/web2py&#x27;, &#x27;config&#x27;: &#x27;&#x27;, &#x27;minthreads&#x27;: None, &#x27;shell&#x27;: None, &#x27;run&#x27;: &#x27;&#x27;, &#x27;log_filename&#x27;: &#x27;httpserver.log&#x27;, &#x27;profiler_dir&#x27;: None, &#x27;args&#x27;: [&#x27;&#x27;], &#x27;socket_timeout&#x27;: 5, &#x27;ssl_ca_certificate&#x27;: None, &#x27;scheduler&#x27;: None, &#x27;interfaces&#x27;: None, &#x27;ssl_private_key&#x27;: &#x27;&#x27;, &#x27;gae&#x27;: None, &#x27;password&#x27;: &#x27;&lt;ask&gt;&#x27;, &#x27;request_queue_size&#x27;: 5, &#x27;ssl_certificate&#x27;: &#x27;&#x27;, &#x27;cronjob&#x27;: False, &#x27;numthreads&#x27;: None, &#x27;quiet&#x27;: False, &#x27;import_models&#x27;: False, &#x27;timeout&#x27;: 10, &#x27;plain&#x27;: False, &#x27;nobanner&#x27;: False}&gt;</div></td></tr><tr><td style="font-weight:bold;vertical-align:top;">content_length</td><td style="vertical-align:top;">:</td><td><div>619791</div></td></tr><tr><td style="font-weight:bold;vertical-align:top;">content_type</td><td style="vertical-align:top;">:</td><td><div>multipart/form-data; boundary=----WebKitFormBoundaryonr8OAIxf1KDKnvA</div></td></tr><tr><td style="font-weight:bold;vertical-align:top;">db_sessions</td><td style="vertical-align:top;">:</td><td><div>set([])</div></td></tr><tr><td style="font-weight:bold;vertical-align:top;">debugging</td><td style="vertical-align:top;">:</td><td><div>False</div></td></tr><tr><td style="font-weight:bold;vertical-align:top;">gluon_parent</td><td style="vertical-align:top;">:</td><td><div>/Users/vqt3dot14/Documents/loveslug/web2py</div></td></tr><tr><td style="font-weight:bold;vertical-align:top;">http_accept</td><td style="vertical-align:top;">:</td><td><div>text/html,application/xhtml+xml,application/xml;q=0.9,image/webp,*/*;q=0.8</div></td></tr><tr><td style="font-weight:bold;vertical-align:top;">http_accept_encoding</td><td style="vertical-align:top;">:</td><td><div>gzip, deflate</div></td></tr><tr><td style="font-weight:bold;vertical-align:top;">http_accept_language</td><td style="vertical-align:top;">:</td><td><div>en-US,en;q=0.8,zh-CN;q=0.6,zh;q=0.4</div></td></tr><tr><td style="font-weight:bold;vertical-align:top;">http_cache_control</td><td style="vertical-align:top;">:</td><td><div>no-cache</div></td></tr><tr><td style="font-weight:bold;vertical-align:top;">http_connection</td><td style="vertical-align:top;">:</td><td><div>keep-alive</div></td></tr><tr><td style="font-weight:bold;vertical-align:top;">http_content_length</td><td style="vertical-align:top;">:</td><td><div>619791</div></td></tr><tr><td style="font-weight:bold;vertical-align:top;">http_content_type</td><td style="vertical-align:top;">:</td><td><div>multipart/form-data; boundary=----WebKitFormBoundaryonr8OAIxf1KDKnvA</div></td></tr><tr><td style="font-weight:bold;vertical-align:top;">http_cookie</td><td style="vertical-align:top;">:</td><td><div>session_id_e1=127.0.0.1-3071120b-9870-45e1-9b65-cf3533275cdf; session_id_welcome=127.0.0.1-3dd6813c-a8ef-4728-9fb7-091106c21973; session_id_admin=127.0.0.1-e803429e-0b76-482c-b1ee-6ac2a0420724; session_id_loveslug=127.0.0.1-b084931b-1d38-4538-91c2-5c86fbacf19a</div></td></tr><tr><td style="font-weight:bold;vertical-align:top;">http_host</td><td style="vertical-align:top;">:</td><td><div>127.0.0.1:8000</div></td></tr><tr><td style="font-weight:bold;vertical-align:top;">http_origin</td><td style="vertical-align:top;">:</td><td><div>http://127.0.0.1:8000</div></td></tr><tr><td style="font-weight:bold;vertical-align:top;">http_pragma</td><td style="vertical-align:top;">:</td><td><div>no-cache</div></td></tr><tr><td style="font-weight:bold;vertical-align:top;">http_referer</td><td style="vertical-align:top;">:</td><td><div>http://127.0.0.1:8000/loveslug/default/editprofile</div></td></tr><tr><td style="font-weight:bold;vertical-align:top;">http_upgrade_insecure_requests</td><td style="vertical-align:top;">:</td><td><div>1</div></td></tr><tr><td style="font-weight:bold;vertical-align:top;">http_user_agent</td><td style="vertical-align:top;">:</td><td><div>Mozilla/5.0 (Macintosh; Intel Mac OS X 10_10_5) AppleWebKit/537.36 (KHTML, like Gecko) Chrome/47.0.2526.73 Safari/537.36</div></td></tr><tr><td style="font-weight:bold;vertical-align:top;">is_jython</td><td style="vertical-align:top;">:</td><td><div>False</div></td></tr><tr><td style="font-weight:bold;vertical-align:top;">is_pypy</td><td style="vertical-align:top;">:</td><td><div>False</div></td></tr><tr><td style="font-weight:bold;vertical-align:top;">is_source</td><td style="vertical-align:top;">:</td><td><div>True</div></td></tr><tr><td style="font-weight:bold;vertical-align:top;">local_hosts</td><td style="vertical-align:top;">:</td><td><div><table><tr><td><div>192.168.1.79</div></td></tr><tr><td><div>Vis-MacBook-Air</div></td></tr><tr><td><div>79.1.168.192.in-addr.arpa</div></td></tr><tr><td><div>::ffff:127.0.0.1</div></td></tr><tr><td><div>::1</div></td></tr><tr><td><div>127.0.0.1</div></td></tr></table></div></td></tr><tr><td style="font-weight:bold;vertical-align:top;">path_info</td><td style="vertical-align:top;">:</td><td><div>/loveslug/default/editprofile</div></td></tr><tr><td style="font-weight:bold;vertical-align:top;">query_string</td><td style="vertical-align:top;">:</td><td><div></div></td></tr><tr><td style="font-weight:bold;vertical-align:top;">remote_addr</td><td style="vertical-align:top;">:</td><td><div>127.0.0.1</div></td></tr><tr><td style="font-weight:bold;vertical-align:top;">remote_port</td><td style="vertical-align:top;">:</td><td><div>59038</div></td></tr><tr><td style="font-weight:bold;vertical-align:top;">request_method</td><td style="vertical-align:top;">:</td><td><div>POST</div></td></tr><tr><td style="font-weight:bold;vertical-align:top;">request_uri</td><td style="vertical-align:top;">:</td><td><div>/loveslug/default/editprofile</div></td></tr><tr><td style="font-weight:bold;vertical-align:top;">script_name</td><td style="vertical-align:top;">:</td><td><div></div></td></tr><tr><td style="font-weight:bold;vertical-align:top;">server_name</td><td style="vertical-align:top;">:</td><td><div>Vis-MacBook-Air</div></td></tr><tr><td style="font-weight:bold;vertical-align:top;">server_port</td><td style="vertical-align:top;">:</td><td><div>8000</div></td></tr><tr><td style="font-weight:bold;vertical-align:top;">server_protocol</td><td style="vertical-align:top;">:</td><td><div>HTTP/1.1</div></td></tr><tr><td style="font-weight:bold;vertical-align:top;">server_software</td><td style="vertical-align:top;">:</td><td><div>Rocket 1.2.6</div></td></tr><tr><td style="font-weight:bold;vertical-align:top;">web2py_path</td><td style="vertical-align:top;">:</td><td><div>/Users/vqt3dot14/Documents/loveslug/web2py</div></td></tr><tr><td style="font-weight:bold;vertical-align:top;">web2py_version</td><td style="vertical-align:top;">:</td><td><div>2.12.3-stable+timestamp.2015.08.19.00.18.03</div></td></tr><tr><td style="font-weight:bold;vertical-align:top;">wsgi.errors</td><td style="vertical-align:top;">:</td><td><div>&lt;open file &#x27;&lt;stderr&gt;&#x27;, mode &#x27;w&#x27; at 0x1066871e0&gt;</div></td></tr><tr><td style="font-weight:bold;vertical-align:top;">wsgi.file_wrapper</td><td style="vertical-align:top;">:</td><td><div>&lt;class wsgiref.util.FileWrapper at 0x1078dadb8&gt;</div></td></tr><tr><td style="font-weight:bold;vertical-align:top;">wsgi.input</td><td style="vertical-align:top;">:</td><td><div>&lt;socket._fileobject object at 0x1122e59d0&gt;</div></td></tr><tr><td style="font-weight:bold;vertical-align:top;">wsgi.multiprocess</td><td style="vertical-align:top;">:</td><td><div>False</div></td></tr><tr><td style="font-weight:bold;vertical-align:top;">wsgi.multithread</td><td style="vertical-align:top;">:</td><td><div>True</div></td></tr><tr><td style="font-weight:bold;vertical-align:top;">wsgi.run_once</td><td style="vertical-align:top;">:</td><td><div>False</div></td></tr><tr><td style="font-weight:bold;vertical-align:top;">wsgi.url_scheme</td><td style="vertical-align:top;">:</td><td><div>http</div></td></tr><tr><td style="font-weight:bold;vertical-align:top;">wsgi.version</td><td style="vertical-align:top;">:</td><td><div><table><tr><td><div>1</div></td></tr><tr><td><div>0</div></td></tr></table></div></td></tr><tr><td style="font-weight:bold;vertical-align:top;">wsgi_errors</td><td style="vertical-align:top;">:</td><td><div>&lt;open file &#x27;&lt;stderr&gt;&#x27;, mode &#x27;w&#x27; at 0x1066871e0&gt;</div></td></tr><tr><td style="font-weight:bold;vertical-align:top;">wsgi_file_wrapper</td><td style="vertical-align:top;">:</td><td><div>&lt;class wsgiref.util.FileWrapper at 0x1078dadb8&gt;</div></td></tr><tr><td style="font-weight:bold;vertical-align:top;">wsgi_input</td><td style="vertical-align:top;">:</td><td><div>&lt;socket._fileobject object at 0x1122e59d0&gt;</div></td></tr><tr><td style="font-weight:bold;vertical-align:top;">wsgi_multiprocess</td><td style="vertical-align:top;">:</td><td><div>False</div></td></tr><tr><td style="font-weight:bold;vertical-align:top;">wsgi_multithread</td><td style="vertical-align:top;">:</td><td><div>True</div></td></tr><tr><td style="font-weight:bold;vertical-align:top;">wsgi_run_once</td><td style="vertical-align:top;">:</td><td><div>False</div></td></tr><tr><td style="font-weight:bold;vertical-align:top;">wsgi_url_scheme</td><td style="vertical-align:top;">:</td><td><div>http</div></td></tr><tr><td style="font-weight:bold;vertical-align:top;">wsgi_version</td><td style="vertical-align:top;">:</td><td><div><table><tr><td><div>1</div></td></tr><tr><td><div>0</div></td></tr></table></div></td></tr></table></div></td></tr><tr><td style="font-weight:bold;vertical-align:top;">extension</td><td style="vertical-align:top;">:</td><td><div>html</div></td></tr><tr><td style="font-weight:bold;vertical-align:top;">folder</td><td style="vertical-align:top;">:</td><td><div>/Users/vqt3dot14/Documents/loveslug/web2py/applications/loveslug/</div></td></tr><tr><td style="font-weight:bold;vertical-align:top;">function</td><td style="vertical-align:top;">:</td><td><div>editprofile</div></td></tr><tr><td style="font-weight:bold;vertical-align:top;">global_settings</td><td style="vertical-align:top;">:</td><td><div><table><tr><td style="font-weight:bold;vertical-align:top;">app_folders</td><td style="vertical-align:top;">:</td><td><div>set([&#x27;/Users/vqt3dot14/Documents/loveslug/web2py/applications/welcome/&#x27;, &#x27;/Users/vqt3dot14/Documents/loveslug/web2py/applications/loveslug/&#x27;, &#x27;/Users/vqt3dot14/Documents/loveslug/web2py/applications/admin/&#x27;])</div></td></tr><tr><td style="font-weight:bold;vertical-align:top;">applications_parent</td><td style="vertical-align:top;">:</td><td><div>/Users/vqt3dot14/Documents/loveslug/web2py</div></td></tr><tr><td style="font-weight:bold;vertical-align:top;">cmd_args</td><td style="vertical-align:top;">:</td><td><div><table></table></div></td></tr><tr><td style="font-weight:bold;vertical-align:top;">cmd_options</td><td style="vertical-align:top;">:</td><td><div>&lt;Values at 0x1079603f8: {&#x27;verbose&#x27;: False, &#x27;ip&#x27;: &#x27;127.0.0.1&#x27;, &#x27;debuglevel&#x27;: 30, &#x27;with_scheduler&#x27;: False, &#x27;ips&#x27;: [], &#x27;shutdown_timeout&#x27;: 5, &#x27;taskbar&#x27;: False, &#x27;with_coverage&#x27;: False, &#x27;scheduler_groups&#x27;: None, &#x27;port&#x27;: 8000, &#x27;maxthreads&#x27;: None, &#x27;softcron&#x27;: False, &#x27;server_name&#x27;: &#x27;Vis-MacBook-Air&#x27;, &#x27;bpython&#x27;: False, &#x27;nogui&#x27;: False, &#x27;pid_filename&#x27;: &#x27;httpserver.pid&#x27;, &#x27;print_errors&#x27;: False, &#x27;extcron&#x27;: False, &#x27;runcron&#x27;: False, &#x27;run_system_tests&#x27;: False, &#x27;test&#x27;: None, &#x27;folder&#x27;: &#x27;/Users/vqt3dot14/Documents/loveslug/web2py&#x27;, &#x27;config&#x27;: &#x27;&#x27;, &#x27;minthreads&#x27;: None, &#x27;shell&#x27;: None, &#x27;run&#x27;: &#x27;&#x27;, &#x27;log_filename&#x27;: &#x27;httpserver.log&#x27;, &#x27;profiler_dir&#x27;: None, &#x27;args&#x27;: [&#x27;&#x27;], &#x27;socket_timeout&#x27;: 5, &#x27;ssl_ca_certificate&#x27;: None, &#x27;scheduler&#x27;: None, &#x27;interfaces&#x27;: None, &#x27;ssl_private_key&#x27;: &#x27;&#x27;, &#x27;gae&#x27;: None, &#x27;password&#x27;: &#x27;&lt;ask&gt;&#x27;, &#x27;request_queue_size&#x27;: 5, &#x27;ssl_certificate&#x27;: &#x27;&#x27;, &#x27;cronjob&#x27;: False, &#x27;numthreads&#x27;: None, &#x27;quiet&#x27;: False, &#x27;import_models&#x27;: False, &#x27;timeout&#x27;: 10, &#x27;plain&#x27;: False, &#x27;nobanner&#x27;: False}&gt;</div></td></tr><tr><td style="font-weight:bold;vertical-align:top;">db_sessions</td><td style="vertical-align:top;">:</td><td><div>set([])</div></td></tr><tr><td style="font-weight:bold;vertical-align:top;">debugging</td><td style="vertical-align:top;">:</td><td><div>False</div></td></tr><tr><td style="font-weight:bold;vertical-align:top;">gluon_parent</td><td style="vertical-align:top;">:</td><td><div>/Users/vqt3dot14/Documents/loveslug/web2py</div></td></tr><tr><td style="font-weight:bold;vertical-align:top;">is_jython</td><td style="vertical-align:top;">:</td><td><div>False</div></td></tr><tr><td style="font-weight:bold;vertical-align:top;">is_pypy</td><td style="vertical-align:top;">:</td><td><div>False</div></td></tr><tr><td style="font-weight:bold;vertical-align:top;">is_source</td><td style="vertical-align:top;">:</td><td><div>True</div></td></tr><tr><td style="font-weight:bold;vertical-align:top;">local_hosts</td><td style="vertical-align:top;">:</td><td><div><table><tr><td><div>192.168.1.79</div></td></tr><tr><td><div>Vis-MacBook-Air</div></td></tr><tr><td><div>79.1.168.192.in-addr.arpa</div></td></tr><tr><td><div>::ffff:127.0.0.1</div></td></tr><tr><td><div>::1</div></td></tr><tr><td><div>127.0.0.1</div></td></tr></table></div></td></tr><tr><td style="font-weight:bold;vertical-align:top;">web2py_version</td><td style="vertical-align:top;">:</td><td><div>2.12.3-stable+timestamp.2015.08.19.00.18.03</div></td></tr></table></div></td></tr><tr><td style="font-weight:bold;vertical-align:top;">is_https</td><td style="vertical-align:top;">:</td><td><div>False</div></td></tr><tr><td style="font-weight:bold;vertical-align:top;">is_local</td><td style="vertical-align:top;">:</td><td><div>True</div></td></tr><tr><td style="font-weight:bold;vertical-align:top;">is_restful</td><td style="vertical-align:top;">:</td><td><div>False</div></td></tr><tr><td style="font-weight:bold;vertical-align:top;">is_sheduler</td><td style="vertical-align:top;">:</td><td><div>None</div></td></tr><tr><td style="font-weight:bold;vertical-align:top;">is_shell</td><td style="vertical-align:top;">:</td><td><div>None</div></td></tr><tr><td style="font-weight:bold;vertical-align:top;">now</td><td style="vertical-align:top;">:</td><td><div>datetime.datetime(2015, 12, 9, 17, 32, 34, 598975)</div></td></tr><tr><td style="font-weight:bold;vertical-align:top;">raw_args</td><td style="vertical-align:top;">:</td><td><div></div></td></tr><tr><td style="font-weight:bold;vertical-align:top;">raw_extension</td><td style="vertical-align:top;">:</td><td><div>None</div></td></tr><tr><td style="font-weight:bold;vertical-align:top;">url</td><td style="vertical-align:top;">:</td><td><div>/loveslug/default/editprofile</div></td></tr><tr><td style="font-weight:bold;vertical-align:top;">utcnow</td><td style="vertical-align:top;">:</td><td><div>datetime.datetime(2015, 12, 10, 1, 32, 34, 599331)</div></td></tr><tr><td style="font-weight:bold;vertical-align:top;">wsgi</td><td style="vertical-align:top;">:</td><td><div>&lt;gluon.main.LazyWSGI object at 0x1083cf650&gt;</div></td></tr></table></div>'
tRp62
sS'frames'
p63
(lp64
(dp65
S'file'
p66
S'/Users/vqt3dot14/Documents/loveslug/web2py/gluon/restricted.py'
p67
sS'dump'
p68
(dp69
S'environment'
p70
S"{'A': <class 'gluon.html.A'>, 'ANY_OF': <class 'gluon.validators.ANY_OF'>, 'ASSIGNJS': <function ASSIGNJS>, 'AppConfig': <function AppConfig>, 'Auth': <class 'gluon.tools.Auth'>, 'B': <class 'gluon.html.B'>, 'BEAUTIFY': <class 'gluon.html.BEAUTIFY'>, 'BODY': <class 'gluon.html.BODY'>, 'BR': <class 'gluon.html.BR'>, 'BUTTON': <class 'gluon.html.BUTTON'>, ...}"
p71
sS'ccode'
p72
S'<code object <module> at 0x106be3330, file "/Use...ations/loveslug/controllers/default.py", line 10>'
p73
ssS'lnum'
p74
I227
sS'lines'
p75
(dp76
I224
S'            ccode = code'
p77
sI225
S'        else:'
p78
sI226
S'            ccode = compile2(code, layer)'
p79
sI227
S'        exec ccode in environment'
p80
sI228
S'    except HTTP:'
p81
sI229
S'        raise'
p82
sI230
S'    except RestrictedError:'
p83
sI231
S'        # do not encapsulate (obfuscate) the original RestrictedError'
p84
sI222
S'    try:'
p85
sI223
S'        if isinstance(code, types.CodeType):'
p86
ssS'call'
p87
S'(code=\'# -*- coding: utf-8 -*-\\n# this file is released ...k"\\n\\nresponse._vars=response._caller(editprofile)\\n\', environment={\'A\': <class \'gluon.html.A\'>, \'ANY_OF\': <class \'gluon.validators.ANY_OF\'>, \'ASSIGNJS\': <function ASSIGNJS>, \'AppConfig\': <function AppConfig>, \'Auth\': <class \'gluon.tools.Auth\'>, \'B\': <class \'gluon.html.B\'>, \'BEAUTIFY\': <class \'gluon.html.BEAUTIFY\'>, \'BODY\': <class \'gluon.html.BODY\'>, \'BR\': <class \'gluon.html.BR\'>, \'BUTTON\': <class \'gluon.html.BUTTON\'>, ...}, layer=\'/Users/vqt3dot14/Documents/loveslug/web2py/applications/loveslug/controllers/default.py\')'
p88
sS'func'
p89
S'restricted'
p90
sa(dp91
g66
S'/Users/vqt3dot14/Documents/loveslug/web2py/applications/loveslug/controllers/default.py'
p92
sg68
(dp93
sg74
I224
sg75
(dp94
I213
S'    db.auth_user.truncate()'
p95
sI214
S'    db.commit()'
p96
sI215
S'    return "ok"'
p97
sI216
S''
sI217
S'def drop_db():'
p98
sI218
S'    db.person.drop()'
p99
sI219
S'    db.chat.drop()'
p100
sI220
S'    db.email.drop()'
p101
sI221
S'    db.commit()'
p102
sI222
S'    return "ok"'
p103
ssg87
S'()'
p104
sg89
S'<module>'
p105
sa(dp106
g66
S'/Users/vqt3dot14/Documents/loveslug/web2py/gluon/globals.py'
p107
sg68
(dp108
S'self'
p109
S'undefined'
p110
sS'f'
S'<function editprofile>'
p111
ssg74
I412
sg75
(dp112
I416
S"        self.generic_patterns = ['*']"
p113
sI407
S"        self.flash = ''            # used by the default view layout"
p114
sI408
S'        self.meta = Storage()      # used by web2py_ajax.html'
p115
sI409
S'        self.menu = []             # used by the default view layout'
p116
sI410
S'        self.files = []            # used by web2py_ajax.html'
p117
sI411
S'        self._vars = None'
p118
sI412
S'        self._caller = lambda f: f()'
p119
sI413
S'        self._view_environment = None'
p120
sI414
S'        self._custom_commit = None'
p121
sI415
S'        self._custom_rollback = None'
p122
ssg87
S'(f=<function editprofile>)'
p123
sg89
S'<lambda>'
p124
sa(dp125
g66
S'/Users/vqt3dot14/Documents/loveslug/web2py/applications/loveslug/controllers/default.py'
p126
sg68
(dp127
S'form.process'
p128
S'<bound method SQLFORM.process of <gluon.sqlhtml.SQLFORM object>>'
p129
sS').accepted'
p130
g110
sS'form'
p131
S'<gluon.sqlhtml.SQLFORM object>'
p132
ssg74
I140
sg75
(dp133
I135
S"                       'major',"
p134
sI136
S"                       'college'"
p135
sI137
S'                   ],'
p136
sI138
S'                   record=profile)'
p137
sI139
S"    form.vars.setdefault('user_id', auth.user)"
p138
sI140
S'    if form.process().accepted:'
p139
sI141
S"        session.flash = T('Your profile has been updated')"
p140
sI142
S"        redirect(URL('default', 'editprofile'))"
p141
sI143
S'    return dict(form=form)'
p142
sI144
S''
ssg87
S'()'
p143
sg89
S'editprofile'
p144
sa(dp145
g66
S'/Users/vqt3dot14/Documents/loveslug/web2py/gluon/html.py'
p146
sg68
(dp147
S'self'
p148
S'<gluon.sqlhtml.SQLFORM object>'
p149
sS'self.validate'
p150
S'<bound method SQLFORM.validate of <gluon.sqlhtml.SQLFORM object>>'
p151
sS'kwargs'
p152
S"{'dbio': True}"
p153
ssg74
I2301
sg75
(dp154
I2304
S'    REDIRECT_JS = "window.location=\'%s\';return false"'
p155
sI2305
S''
sI2296
S''
sI2297
S''
sI2298
S'        """'
p156
sI2299
S"        kwargs['dbio'] = kwargs.get('dbio', True)"
p157
sI2300
S'                                    # necessary for SQLHTML forms'
p158
sI2301
S'        self.validate(**kwargs)'
p159
sI2302
S'        return self'
p160
sI2303
S''
ssg87
S"(self=<gluon.sqlhtml.SQLFORM object>, **kwargs={'dbio': True})"
p161
sg89
S'process'
p162
sa(dp163
g66
S'/Users/vqt3dot14/Documents/loveslug/web2py/gluon/html.py'
p164
sg68
(dp165
S'self'
p166
S'<gluon.sqlhtml.SQLFORM object>'
p167
sS'self.accepts'
p168
S'<bound method SQLFORM.accepts of <gluon.sqlhtml.SQLFORM object>>'
p169
sS'kwargs'
p170
S"{'dbio': True, 'request_vars': <Storage {'interests': 'LoL', 'major': 'CS: Game...ed2-9374ad8f29ac', '_formname': 'person/create'}>, 'session': <Storage {'_formkey[register]': ['21c18b4d-64e4-...ord]': ['1380ff3b-d6f0-4ce3-9fc5-26081eb135c1']}>}"
p171
ssg74
I2238
sg75
(dp172
I2240
S'                if next:'
p173
sI2241
S'                    current.session.flash = message_onsuccess'
p174
sI2242
S'                else:'
p175
sI2233
S"        for key in ('message_onsuccess', 'message_onfailure', 'onsuccess',"
p176
sI2234
S"                    'onfailure', 'next', 'message_onchange', 'onchange'):"
p177
sI2235
S'            if key in kwargs:'
p178
sI2236
S'                del kwargs[key]'
p179
sI2237
S''
sI2238
S'        if self.accepts(**kwargs):'
p180
sI2239
S"            if onsuccess == 'flash':"
p181
ssg87
S"(self=<gluon.sqlhtml.SQLFORM object>, **kwargs={'dbio': True, 'request_vars': <Storage {'interests': 'LoL', 'major': 'CS: Game...ed2-9374ad8f29ac', '_formname': 'person/create'}>, 'session': <Storage {'_formkey[register]': ['21c18b4d-64e4-...ord]': ['1380ff3b-d6f0-4ce3-9fc5-26081eb135c1']}>})"
p182
sg89
S'validate'
p183
sa(dp184
g66
S'/Users/vqt3dot14/Documents/loveslug/web2py/gluon/sqlhtml.py'
p185
sg68
(dp186
S'self.vars.id'
p187
S'None'
p188
sS'fields'
p189
S"{'about_me': 'ello', 'birthday': datetime.date(1993, 8, 1), 'college': 'Crown', 'gender': 'Female', 'image': 'person.image.ae2fd4662a2fed63.706f6e795f62795f73657261666c6575722d6439676e3870312e6a7067.jpg', 'interests': 'LoL', 'major': 'CS: Game Design', 'seeking_a': 'Male', 'user_id': <Row {'first_name': 'Vi', 'last_name': 'Tu', 'Ge...registration_key': '', 'email': 'vttu@ucsc.edu'}>, 'your_name': 'Vi'}"
p190
sS'self'
p191
S'<gluon.sqlhtml.SQLFORM object>'
p192
sS'self.vars'
p193
S"<Storage {'interests': 'LoL', 'major': 'CS: Game...: 'Vi', 'seeking_a': 'Male', 'about_me': 'ello'}>"
p194
sS'self.table.insert'
p195
S'<bound method Table.insert of <Table person (id,...eking_a,image,about_me,interests,major,college)>>'
p196
sS'self.table'
p197
S'<Table person (id,user_id,your_name,birthday,gen...eeking_a,image,about_me,interests,major,college)>'
p198
ssg74
I1711
sg75
(dp199
I1706
S'                    self.vars.id = self.record[self.id_field_name]'
p200
sI1707
S'                    if fields:'
p201
sI1708
S'                        self.table._db(self.table._id == self.record['
p202
sI1709
S'                                       self.id_field_name]).update(**fields)'
p203
sI1710
S'                else:'
p204
sI1711
S'                    self.vars.id = self.table.insert(**fields)'
p205
sI1712
S'        self.accepted = ret'
p206
sI1713
S'        return ret'
p207
sI1714
S''
sI1715
S'    AUTOTYPES = {'
p208
ssg87
S"(self=<gluon.sqlhtml.SQLFORM object>, request_vars=<Storage {'interests': 'LoL', 'major': 'CS: Game...ed2-9374ad8f29ac', '_formname': 'person/create'}>, session=<Storage {'_formkey[register]': ['21c18b4d-64e4-...ord]': ['1380ff3b-d6f0-4ce3-9fc5-26081eb135c1']}>, formname='person/create', keepvalues=False, onvalidation=None, dbio=True, hideerror=False, detect_record_change=False, **kwargs={})"
p209
sg89
S'accepts'
p210
sa(dp211
g66
S'/Users/vqt3dot14/Documents/loveslug/web2py/gluon/packages/dal/pydal/objects.py'
p212
sg68
(dp213
S'self._listify'
p214
S'<bound method Table._listify of <Table person (i...eking_a,image,about_me,interests,major,college)>>'
p215
sS'fields'
p216
S"{'about_me': 'ello', 'birthday': datetime.date(1993, 8, 1), 'college': 'Crown', 'gender': 'Female', 'image': 'person.image.ae2fd4662a2fed63.706f6e795f62795f73657261666c6575722d6439676e3870312e6a7067.jpg', 'interests': 'LoL', 'major': 'CS: Game Design', 'seeking_a': 'Male', 'user_id': <Row {'first_name': 'Vi', 'last_name': 'Tu', 'Ge...registration_key': '', 'email': 'vttu@ucsc.edu'}>, 'your_name': 'Vi'}"
p217
sS'self'
p218
S'<Table person (id,user_id,your_name,birthday,gen...eeking_a,image,about_me,interests,major,college)>'
p219
sS'ret'
p220
g110
sS'self._db._adapter'
p221
S'<pydal.adapters.sqlite.SQLiteAdapter object>'
p222
sS'self._db._adapter.insert'
p223
S'<bound method SQLiteAdapter.insert of <pydal.adapters.sqlite.SQLiteAdapter object>>'
p224
sS'self._db'
p225
S'<DAL uri="sqlite://storage.sqlite">'
p226
ssg74
I712
sg75
(dp227
I707
S'    def insert(self, **fields):'
p228
sI708
S'        fields = self._defaults(fields)'
p229
sI709
S'        self._attempt_upload(fields)'
p230
sI710
S'        if any(f(fields) for f in self._before_insert):'
p231
sI711
S'            return 0'
p232
sI712
S'        ret = self._db._adapter.insert(self, self._listify(fields))'
p233
sI713
S'        if ret and self._after_insert:'
p234
sI714
S'            fields = Row(fields)'
p235
sI715
S'            [f(fields, ret) for f in self._after_insert]'
p236
sI716
S'        return ret'
p237
ssg87
S"(self=<Table person (id,user_id,your_name,birthday,gen...eeking_a,image,about_me,interests,major,college)>, **fields={'about_me': 'ello', 'birthday': datetime.date(1993, 8, 1), 'college': 'Crown', 'gender': 'Female', 'image': 'person.image.ae2fd4662a2fed63.706f6e795f62795f73657261666c6575722d6439676e3870312e6a7067.jpg', 'interests': 'LoL', 'major': 'CS: Game Design', 'seeking_a': 'Male', 'user_id': <Row {'first_name': 'Vi', 'last_name': 'Tu', 'Ge...registration_key': '', 'email': 'vttu@ucsc.edu'}>, 'your_name': 'Vi'})"
p238
sg89
S'insert'
p239
sa(dp240
g66
S'/Users/vqt3dot14/Documents/loveslug/web2py/gluon/packages/dal/pydal/adapters/base.py'
p241
sg68
(dp242
S'e'
S"IntegrityError('FOREIGN KEY constraint failed',)"
p243
ssg74
I739
sg75
(dp244
I736
S'            e = sys.exc_info()[1]'
p245
sI737
S"            if hasattr(table,'_on_insert_error'):"
p246
sI738
S'                return table._on_insert_error(table,fields,e)'
p247
sI739
S'            raise e'
p248
sI740
S"        if hasattr(table, '_primarykey'):"
p249
sI741
S'            mydict = dict([(k[0].name, k[1]) for k in fields if k[0].name in table._primarykey])'
p250
sI742
S'            if mydict != {}:'
p251
sI743
S'                return mydict'
p252
sI734
S'            self.execute(query)'
p253
sI735
S'        except Exception:'
p254
ssg87
S"(self=<pydal.adapters.sqlite.SQLiteAdapter object>, table=<Table person (id,user_id,your_name,birthday,gen...eeking_a,image,about_me,interests,major,college)>, fields=[(<pydal.objects.Field object>, 'LoL'), (<pydal.objects.Field object>, 'CS: Game Design'), (<pydal.objects.Field object>, <Row {'first_name': 'Vi', 'last_name': 'Tu', 'Ge...registration_key': '', 'email': 'vttu@ucsc.edu'}>), (<pydal.objects.Field object>, 'Crown'), (<pydal.objects.Field object>, 'Female'), (<pydal.objects.Field object>, 'person.image.ae2fd4662a2fed63.706f6e795f62795f73657261666c6575722d6439676e3870312e6a7067.jpg'), (<pydal.objects.Field object>, datetime.date(1993, 8, 1)), (<pydal.objects.Field object>, 'Vi'), (<pydal.objects.Field object>, 'Male'), (<pydal.objects.Field object>, 'ello')])"
p255
sg89
g239
sasS'pyver'
p256
S'Python 2.7.9: /usr/local/opt/python/bin/python2.7 (prefix: /usr/local/Cellar/python/2.7.9/Frameworks/Python.framework/Versions/2.7)'
p257
sS'session'
p258
g61
(S's\x83\n\x00\x00<div><table><tr><td style="font-weight:bold;vertical-align:top;">auth</td><td style="vertical-align:top;">:</td><td><div><table><tr><td style="font-weight:bold;vertical-align:top;">expiration</td><td style="vertical-align:top;">:</td><td><div>3600</div></td></tr><tr><td style="font-weight:bold;vertical-align:top;">hmac_key</td><td style="vertical-align:top;">:</td><td><div>c7a6ae64-33ed-47c6-a192-1d36309f593c</div></td></tr><tr><td style="font-weight:bold;vertical-align:top;">last_visit</td><td style="vertical-align:top;">:</td><td><div>datetime.datetime(2015, 12, 9, 17, 31, 17, 764445)</div></td></tr><tr><td style="font-weight:bold;vertical-align:top;">remember_me</td><td style="vertical-align:top;">:</td><td><div>False</div></td></tr><tr><td style="font-weight:bold;vertical-align:top;">user</td><td style="vertical-align:top;">:</td><td><div><table><tr><td style="font-weight:bold;vertical-align:top;">Gender</td><td style="vertical-align:top;">:</td><td><div>Female</div></td></tr><tr><td style="font-weight:bold;vertical-align:top;">Seeking_a</td><td style="vertical-align:top;">:</td><td><div>Male</div></td></tr><tr><td style="font-weight:bold;vertical-align:top;">birthday</td><td style="vertical-align:top;">:</td><td><div>datetime.date(1993, 8, 1)</div></td></tr><tr><td style="font-weight:bold;vertical-align:top;">email</td><td style="vertical-align:top;">:</td><td><div>vttu@ucsc.edu</div></td></tr><tr><td style="font-weight:bold;vertical-align:top;">first_name</td><td style="vertical-align:top;">:</td><td><div>Vi</div></td></tr><tr><td style="font-weight:bold;vertical-align:top;">id</td><td style="vertical-align:top;">:</td><td><div>1L</div></td></tr><tr><td style="font-weight:bold;vertical-align:top;">last_name</td><td style="vertical-align:top;">:</td><td><div>Tu</div></td></tr><tr><td style="font-weight:bold;vertical-align:top;">registration_id</td><td style="vertical-align:top;">:</td><td><div></div></td></tr><tr><td style="font-weight:bold;vertical-align:top;">registration_key</td><td style="vertical-align:top;">:</td><td><div></div></td></tr><tr><td style="font-weight:bold;vertical-align:top;">reset_password_key</td><td style="vertical-align:top;">:</td><td><div></div></td></tr></table></div></td></tr><tr><td style="font-weight:bold;vertical-align:top;">user_groups</td><td style="vertical-align:top;">:</td><td><div><table><tr><td style="font-weight:bold;vertical-align:top;">3</td><td style="vertical-align:top;">:</td><td><div>user_1</div></td></tr></table></div></td></tr></table></div></td></tr><tr><td style="font-weight:bold;vertical-align:top;">flash</td><td style="vertical-align:top;">:</td><td><div>None</div></td></tr></table></div>'
tRp259
sS'etype'
p260
S"<class 'sqlite3.IntegrityError'>"
p261
sS'date'
p262
S'Wed Dec  9 17:32:34 2015'
p263
sS'response'
p264
g61
(S's\xce?\x00\x00<div><table><tr><td style="font-weight:bold;vertical-align:top;">body</td><td style="vertical-align:top;">:</td><td><div>&lt;cStringIO.StringO object at 0x1122bfc70&gt;</div></td></tr><tr><td style="font-weight:bold;vertical-align:top;">cookies</td><td style="vertical-align:top;">:</td><td><div><table><tr><td style="font-weight:bold;vertical-align:top;">session_id_loveslug</td><td style="vertical-align:top;">:</td><td><div>127.0.0.1-b084931b-1d38-4538-91c2-5c86fbacf19a<table><tr><td style="font-weight:bold;vertical-align:top;">comment</td><td style="vertical-align:top;">:</td><td><div></div></td></tr><tr><td style="font-weight:bold;vertical-align:top;">domain</td><td style="vertical-align:top;">:</td><td><div></div></td></tr><tr><td style="font-weight:bold;vertical-align:top;">expires</td><td style="vertical-align:top;">:</td><td><div></div></td></tr><tr><td style="font-weight:bold;vertical-align:top;">httponly</td><td style="vertical-align:top;">:</td><td><div></div></td></tr><tr><td style="font-weight:bold;vertical-align:top;">max-age</td><td style="vertical-align:top;">:</td><td><div></div></td></tr><tr><td style="font-weight:bold;vertical-align:top;">path</td><td style="vertical-align:top;">:</td><td><div>/</div></td></tr><tr><td style="font-weight:bold;vertical-align:top;">secure</td><td style="vertical-align:top;">:</td><td><div></div></td></tr><tr><td style="font-weight:bold;vertical-align:top;">version</td><td style="vertical-align:top;">:</td><td><div></div></td></tr></table></div></td></tr></table></div></td></tr><tr><td style="font-weight:bold;vertical-align:top;">delimiters</td><td style="vertical-align:top;">:</td><td><div><table><tr><td><div>{{</div></td></tr><tr><td><div>}}</div></td></tr></table></div></td></tr><tr><td style="font-weight:bold;vertical-align:top;">files</td><td style="vertical-align:top;">:</td><td><div><table></table></div></td></tr><tr><td style="font-weight:bold;vertical-align:top;">flash</td><td style="vertical-align:top;">:</td><td><div></div></td></tr><tr><td style="font-weight:bold;vertical-align:top;">form_label_separator</td><td style="vertical-align:top;">:</td><td><div></div></td></tr><tr><td style="font-weight:bold;vertical-align:top;">formstyle</td><td style="vertical-align:top;">:</td><td><div>bootstrap3_inline</div></td></tr><tr><td style="font-weight:bold;vertical-align:top;">generic_patterns</td><td style="vertical-align:top;">:</td><td><div><table><tr><td><div>*</div></td></tr></table></div></td></tr><tr><td style="font-weight:bold;vertical-align:top;">google_analytics_id</td><td style="vertical-align:top;">:</td><td><div>None</div></td></tr><tr><td style="font-weight:bold;vertical-align:top;">headers</td><td style="vertical-align:top;">:</td><td><div><table><tr><td style="font-weight:bold;vertical-align:top;">X-Powered-By</td><td style="vertical-align:top;">:</td><td><div>web2py</div></td></tr></table></div></td></tr><tr><td style="font-weight:bold;vertical-align:top;">logo</td><td style="vertical-align:top;">:</td><td><div><a class="navbar-brand" href="http://www.web2py.com/" id="web2py-logo"><b>web<span>2</span>py</b>&trade;&nbsp;</a></div></td></tr><tr><td style="font-weight:bold;vertical-align:top;">menu</td><td style="vertical-align:top;">:</td><td><div><table><tr><td><div><table><tr><td><div>Home</div></td></tr><tr><td><div>False</div></td></tr><tr><td><div>/loveslug/default/index</div></td></tr><tr><td><div><table></table></div></td></tr></table></div></td></tr><tr><td><div><table><tr><td><div>My Sites</div></td></tr><tr><td><div>False</div></td></tr><tr><td><div>/admin/default/site</div></td></tr></table></div></td></tr><tr><td><div><table><tr><td><div>This App</div></td></tr><tr><td><div>False</div></td></tr><tr><td><div>#</div></td></tr><tr><td><div><table><tr><td><div><table><tr><td><div>Design</div></td></tr><tr><td><div>False</div></td></tr><tr><td><div>/admin/default/design/loveslug</div></td></tr></table></div></td></tr><tr><td><div><li class="divider"></li></div></td></tr><tr><td><div><table><tr><td><div>Controller</div></td></tr><tr><td><div>False</div></td></tr><tr><td><div>/admin/default/edit/loveslug/controllers/default.py</div></td></tr></table></div></td></tr><tr><td><div><table><tr><td><div>View</div></td></tr><tr><td><div>False</div></td></tr><tr><td><div>/admin/default/edit/loveslug/views/default/editprofile.html</div></td></tr></table></div></td></tr><tr><td><div><table><tr><td><div>DB Model</div></td></tr><tr><td><div>False</div></td></tr><tr><td><div>/admin/default/edit/loveslug/models/db.py</div></td></tr></table></div></td></tr><tr><td><div><table><tr><td><div>Menu Model</div></td></tr><tr><td><div>False</div></td></tr><tr><td><div>/admin/default/edit/loveslug/models/menu.py</div></td></tr></table></div></td></tr><tr><td><div><table><tr><td><div>Config.ini</div></td></tr><tr><td><div>False</div></td></tr><tr><td><div>/admin/default/edit/loveslug/private/appconfig.ini</div></td></tr></table></div></td></tr><tr><td><div><table><tr><td><div>Layout</div></td></tr><tr><td><div>False</div></td></tr><tr><td><div>/admin/default/edit/loveslug/views/layout.html</div></td></tr></table></div></td></tr><tr><td><div><table><tr><td><div>Stylesheet</div></td></tr><tr><td><div>False</div></td></tr><tr><td><div>/admin/default/edit/loveslug/static/css/web2py-bootstrap3.css</div></td></tr></table></div></td></tr><tr><td><div><table><tr><td><div>Database</div></td></tr><tr><td><div>False</div></td></tr><tr><td><div>/loveslug/appadmin/index</div></td></tr></table></div></td></tr><tr><td><div><table><tr><td><div>Errors</div></td></tr><tr><td><div>False</div></td></tr><tr><td><div>/admin/default/errors/loveslug</div></td></tr></table></div></td></tr><tr><td><div><table><tr><td><div>About</div></td></tr><tr><td><div>False</div></td></tr><tr><td><div>/admin/default/about/loveslug</div></td></tr></table></div></td></tr></table></div></td></tr></table></div></td></tr><tr><td><div><table><tr><td><div>web2py.com</div></td></tr><tr><td><div>False</div></td></tr><tr><td><div>#</div></td></tr><tr><td><div><table><tr><td><div><table><tr><td><div>Download</div></td></tr><tr><td><div>False</div></td></tr><tr><td><div>http://www.web2py.com/examples/default/download</div></td></tr></table></div></td></tr><tr><td><div><table><tr><td><div>Support</div></td></tr><tr><td><div>False</div></td></tr><tr><td><div>http://www.web2py.com/examples/default/support</div></td></tr></table></div></td></tr><tr><td><div><table><tr><td><div>Demo</div></td></tr><tr><td><div>False</div></td></tr><tr><td><div>http://web2py.com/demo_admin</div></td></tr></table></div></td></tr><tr><td><div><table><tr><td><div>Quick Examples</div></td></tr><tr><td><div>False</div></td></tr><tr><td><div>http://web2py.com/examples/default/examples</div></td></tr></table></div></td></tr><tr><td><div><table><tr><td><div>FAQ</div></td></tr><tr><td><div>False</div></td></tr><tr><td><div>http://web2py.com/AlterEgo</div></td></tr></table></div></td></tr><tr><td><div><table><tr><td><div>Videos</div></td></tr><tr><td><div>False</div></td></tr><tr><td><div>http://www.web2py.com/examples/default/videos/</div></td></tr></table></div></td></tr><tr><td><div><table><tr><td><div>Free Applications</div></td></tr><tr><td><div>False</div></td></tr><tr><td><div>http://web2py.com/appliances</div></td></tr></table></div></td></tr><tr><td><div><table><tr><td><div>Plugins</div></td></tr><tr><td><div>False</div></td></tr><tr><td><div>http://web2py.com/plugins</div></td></tr></table></div></td></tr><tr><td><div><table><tr><td><div>Recipes</div></td></tr><tr><td><div>False</div></td></tr><tr><td><div>http://web2pyslices.com/</div></td></tr></table></div></td></tr></table></div></td></tr></table></div></td></tr><tr><td><div><table><tr><td><div>Documentation</div></td></tr><tr><td><div>False</div></td></tr><tr><td><div>#</div></td></tr><tr><td><div><table><tr><td><div><table><tr><td><div>Online book</div></td></tr><tr><td><div>False</div></td></tr><tr><td><div>http://www.web2py.com/book</div></td></tr></table></div></td></tr><tr><td><div><li class="divider"></li></div></td></tr><tr><td><div><table><tr><td><div>Preface</div></td></tr><tr><td><div>False</div></td></tr><tr><td><div>http://www.web2py.com/book/default/chapter/00</div></td></tr></table></div></td></tr><tr><td><div><table><tr><td><div>Introduction</div></td></tr><tr><td><div>False</div></td></tr><tr><td><div>http://www.web2py.com/book/default/chapter/01</div></td></tr></table></div></td></tr><tr><td><div><table><tr><td><div>Python</div></td></tr><tr><td><div>False</div></td></tr><tr><td><div>http://www.web2py.com/book/default/chapter/02</div></td></tr></table></div></td></tr><tr><td><div><table><tr><td><div>Overview</div></td></tr><tr><td><div>False</div></td></tr><tr><td><div>http://www.web2py.com/book/default/chapter/03</div></td></tr></table></div></td></tr><tr><td><div><table><tr><td><div>The Core</div></td></tr><tr><td><div>False</div></td></tr><tr><td><div>http://www.web2py.com/book/default/chapter/04</div></td></tr></table></div></td></tr><tr><td><div><table><tr><td><div>The Views</div></td></tr><tr><td><div>False</div></td></tr><tr><td><div>http://www.web2py.com/book/default/chapter/05</div></td></tr></table></div></td></tr><tr><td><div><table><tr><td><div>Database</div></td></tr><tr><td><div>False</div></td></tr><tr><td><div>http://www.web2py.com/book/default/chapter/06</div></td></tr></table></div></td></tr><tr><td><div><table><tr><td><div>Forms and Validators</div></td></tr><tr><td><div>False</div></td></tr><tr><td><div>http://www.web2py.com/book/default/chapter/07</div></td></tr></table></div></td></tr><tr><td><div><table><tr><td><div>Email and SMS</div></td></tr><tr><td><div>False</div></td></tr><tr><td><div>http://www.web2py.com/book/default/chapter/08</div></td></tr></table></div></td></tr><tr><td><div><table><tr><td><div>Access Control</div></td></tr><tr><td><div>False</div></td></tr><tr><td><div>http://www.web2py.com/book/default/chapter/09</div></td></tr></table></div></td></tr><tr><td><div><table><tr><td><div>Services</div></td></tr><tr><td><div>False</div></td></tr><tr><td><div>http://www.web2py.com/book/default/chapter/10</div></td></tr></table></div></td></tr><tr><td><div><table><tr><td><div>Ajax Recipes</div></td></tr><tr><td><div>False</div></td></tr><tr><td><div>http://www.web2py.com/book/default/chapter/11</div></td></tr></table></div></td></tr><tr><td><div><table><tr><td><div>Components and Plugins</div></td></tr><tr><td><div>False</div></td></tr><tr><td><div>http://www.web2py.com/book/default/chapter/12</div></td></tr></table></div></td></tr><tr><td><div><table><tr><td><div>Deployment Recipes</div></td></tr><tr><td><div>False</div></td></tr><tr><td><div>http://www.web2py.com/book/default/chapter/13</div></td></tr></table></div></td></tr><tr><td><div><table><tr><td><div>Other Recipes</div></td></tr><tr><td><div>False</div></td></tr><tr><td><div>http://www.web2py.com/book/default/chapter/14</div></td></tr></table></div></td></tr><tr><td><div><table><tr><td><div>Helping web2py</div></td></tr><tr><td><div>False</div></td></tr><tr><td><div>http://www.web2py.com/book/default/chapter/15</div></td></tr></table></div></td></tr><tr><td><div><table><tr><td><div>Buy web2py\'s book</div></td></tr><tr><td><div>False</div></td></tr><tr><td><div>http://stores.lulu.com/web2py</div></td></tr></table></div></td></tr></table></div></td></tr></table></div></td></tr><tr><td><div><table><tr><td><div>Community</div></td></tr><tr><td><div>False</div></td></tr><tr><td><div>None</div></td></tr><tr><td><div><table><tr><td><div><table><tr><td><div>Groups</div></td></tr><tr><td><div>False</div></td></tr><tr><td><div>http://www.web2py.com/examples/default/usergroups</div></td></tr></table></div></td></tr><tr><td><div><table><tr><td><div>Twitter</div></td></tr><tr><td><div>False</div></td></tr><tr><td><div>http://twitter.com/web2py</div></td></tr></table></div></td></tr><tr><td><div><table><tr><td><div>Live Chat</div></td></tr><tr><td><div>False</div></td></tr><tr><td><div>http://webchat.freenode.net/?channels=web2py</div></td></tr></table></div></td></tr></table></div></td></tr></table></div></td></tr></table></div></td></tr><tr><td style="font-weight:bold;vertical-align:top;">meta</td><td style="vertical-align:top;">:</td><td><div><table><tr><td style="font-weight:bold;vertical-align:top;">author</td><td style="vertical-align:top;">:</td><td><div>Your Name &lt;you@example.com&gt;</div></td></tr><tr><td style="font-weight:bold;vertical-align:top;">description</td><td style="vertical-align:top;">:</td><td><div>a cool new app</div></td></tr><tr><td style="font-weight:bold;vertical-align:top;">generator</td><td style="vertical-align:top;">:</td><td><div>Web2py Web Framework</div></td></tr><tr><td style="font-weight:bold;vertical-align:top;">keywords</td><td style="vertical-align:top;">:</td><td><div>web2py, python, framework</div></td></tr></table></div></td></tr><tr><td style="font-weight:bold;vertical-align:top;">models_to_run</td><td style="vertical-align:top;">:</td><td><div><table><tr><td><div>^\\w+\\.py$</div></td></tr><tr><td><div>^default/\\w+\\.py$</div></td></tr><tr><td><div>^default/editprofile/\\w+\\.py$</div></td></tr></table></div></td></tr><tr><td style="font-weight:bold;vertical-align:top;">postprocessing</td><td style="vertical-align:top;">:</td><td><div><table></table></div></td></tr><tr><td style="font-weight:bold;vertical-align:top;">session_client</td><td style="vertical-align:top;">:</td><td><div>127.0.0.1</div></td></tr><tr><td style="font-weight:bold;vertical-align:top;">session_cookie_compression_level</td><td style="vertical-align:top;">:</td><td><div>None</div></td></tr><tr><td style="font-weight:bold;vertical-align:top;">session_cookie_expires</td><td style="vertical-align:top;">:</td><td><div>None</div></td></tr><tr><td style="font-weight:bold;vertical-align:top;">session_cookie_key</td><td style="vertical-align:top;">:</td><td><div>None</div></td></tr><tr><td style="font-weight:bold;vertical-align:top;">session_data_name</td><td style="vertical-align:top;">:</td><td><div>session_data_loveslug</div></td></tr><tr><td style="font-weight:bold;vertical-align:top;">session_file</td><td style="vertical-align:top;">:</td><td><div>&lt;open file &#x27;/Users/vqt3dot14/Documents/loveslug/web2py/applications/loveslug/sessions/176/1c4/127.0.0.1-b084931b-1d38-4538-91c2-5c86fbacf19a&#x27;, mode &#x27;rb+&#x27; at 0x111e06ed0&gt;</div></td></tr><tr><td style="font-weight:bold;vertical-align:top;">session_filename</td><td style="vertical-align:top;">:</td><td><div>/Users/vqt3dot14/Documents/loveslug/web2py/applications/loveslug/sessions/127.0.0.1-b084931b-1d38-4538-91c2-5c86fbacf19a</div></td></tr><tr><td style="font-weight:bold;vertical-align:top;">session_hash</td><td style="vertical-align:top;">:</td><td><div>4e279c4b1659c3f06cb9daa0e7726960</div></td></tr><tr><td style="font-weight:bold;vertical-align:top;">session_id</td><td style="vertical-align:top;">:</td><td><div>127.0.0.1-b084931b-1d38-4538-91c2-5c86fbacf19a</div></td></tr><tr><td style="font-weight:bold;vertical-align:top;">session_id_name</td><td style="vertical-align:top;">:</td><td><div>session_id_loveslug</div></td></tr><tr><td style="font-weight:bold;vertical-align:top;">session_locked</td><td style="vertical-align:top;">:</td><td><div>True</div></td></tr><tr><td style="font-weight:bold;vertical-align:top;">session_masterapp</td><td style="vertical-align:top;">:</td><td><div>loveslug</div></td></tr><tr><td style="font-weight:bold;vertical-align:top;">session_new</td><td style="vertical-align:top;">:</td><td><div>False</div></td></tr><tr><td style="font-weight:bold;vertical-align:top;">session_storage_type</td><td style="vertical-align:top;">:</td><td><div>file</div></td></tr><tr><td style="font-weight:bold;vertical-align:top;">status</td><td style="vertical-align:top;">:</td><td><div>200</div></td></tr><tr><td style="font-weight:bold;vertical-align:top;">subtitle</td><td style="vertical-align:top;">:</td><td><div></div></td></tr><tr><td style="font-weight:bold;vertical-align:top;">title</td><td style="vertical-align:top;">:</td><td><div>Loveslug</div></td></tr><tr><td style="font-weight:bold;vertical-align:top;">view</td><td style="vertical-align:top;">:</td><td><div>default/editprofile.html</div></td></tr></table></div>'
tRp265
sS'locals'
p266
(dp267
S'query'
p268
S'"INSERT INTO person(interests,major,user_id,colle...312e6a7067.jpg\',\'1993-08-01\',\'Vi\',\'Male\',\'ello\');"'
p269
sS'self'
p270
S'<pydal.adapters.sqlite.SQLiteAdapter object>'
p271
sS'e'
S"IntegrityError('FOREIGN KEY constraint failed',)"
p272
sS'fields'
p273
S"[(<pydal.objects.Field object>, 'LoL'), (<pydal.objects.Field object>, 'CS: Game Design'), (<pydal.objects.Field object>, <Row {'first_name': 'Vi', 'last_name': 'Tu', 'Ge...registration_key': '', 'email': 'vttu@ucsc.edu'}>), (<pydal.objects.Field object>, 'Crown'), (<pydal.objects.Field object>, 'Female'), (<pydal.objects.Field object>, 'person.image.ae2fd4662a2fed63.706f6e795f62795f73657261666c6575722d6439676e3870312e6a7067.jpg'), (<pydal.objects.Field object>, datetime.date(1993, 8, 1)), (<pydal.objects.Field object>, 'Vi'), (<pydal.objects.Field object>, 'Male'), (<pydal.objects.Field object>, 'ello')]"
p274
sS'table'
p275
S'<Table person (id,user_id,your_name,birthday,gen...eeking_a,image,about_me,interests,major,college)>'
p276
sssS'traceback'
p277
S'Traceback (most recent call last):\n  File "/Users/vqt3dot14/Documents/loveslug/web2py/gluon/restricted.py", line 227, in restricted\n    exec ccode in environment\n  File "/Users/vqt3dot14/Documents/loveslug/web2py/applications/loveslug/controllers/default.py", line 224, in <module>\n  File "/Users/vqt3dot14/Documents/loveslug/web2py/gluon/globals.py", line 412, in <lambda>\n    self._caller = lambda f: f()\n  File "/Users/vqt3dot14/Documents/loveslug/web2py/applications/loveslug/controllers/default.py", line 140, in editprofile\n    if form.process().accepted:\n  File "/Users/vqt3dot14/Documents/loveslug/web2py/gluon/html.py", line 2301, in process\n    self.validate(**kwargs)\n  File "/Users/vqt3dot14/Documents/loveslug/web2py/gluon/html.py", line 2238, in validate\n    if self.accepts(**kwargs):\n  File "/Users/vqt3dot14/Documents/loveslug/web2py/gluon/sqlhtml.py", line 1711, in accepts\n    self.vars.id = self.table.insert(**fields)\n  File "/Users/vqt3dot14/Documents/loveslug/web2py/gluon/packages/dal/pydal/objects.py", line 712, in insert\n    ret = self._db._adapter.insert(self, self._listify(fields))\n  File "/Users/vqt3dot14/Documents/loveslug/web2py/gluon/packages/dal/pydal/adapters/base.py", line 739, in insert\n    raise e\nIntegrityError: FOREIGN KEY constraint failed\n'
p278
s.