(dp1
S'output'
p2
S"<type 'exceptions.TypeError'> unsupported operand type(s) for &: 'NoneType' and 'NoneType'"
p3
sS'layer'
p4
S'C:\\Users\\Josh Shih\\Desktop\\cmps183\\applications\\loveslug\\controllers/default.py'
p5
sS'code'
p6
S'# -*- coding: utf-8 -*-\n# this file is released under public domain and you can use without limitations\n\n#########################################################################\n## This is a sample controller\n## - index is the default action of any application\n## - user is required for authentication and authorization\n## - download is for downloading files uploaded in the db (does streaming)\n#########################################################################\n\ndef index():\n    """\n    example action using the internationalization operator T and flash\n    rendered by views/default/index.html or views/generic.html\n\n    if you need a simple wiki simply replace the two lines below with:\n    return auth.wiki()\n    """\n    logger.info("Here we are, in the controller.")\n    form = SQLFORM(db.person)\n    logger.info(form.vars.password)\n    logger.info(form.vars.verify_password)\n    if form.vars.password != None & form.vars.password == form.vars.verify_password:\n        if form.process().accepted:\n            logger.info("Form Accepted")\n            redirect(URL(\'default\', \'index\'))\n    else:\n        logger.info("Passwords did not match!")\n        redirect(URL(\'default\', \'index\'))\n\n    return dict(form = form)\n\ndef matches():\n\n    return dict()\n\ndef user():\n    """\n    exposes:\n    http://..../[app]/default/user/login\n    http://..../[app]/default/user/logout\n    http://..../[app]/default/user/register\n    http://..../[app]/default/user/profile\n    http://..../[app]/default/user/retrieve_password\n    http://..../[app]/default/user/change_password\n    http://..../[app]/default/user/manage_users (requires membership in\n    http://..../[app]/default/user/bulk_register\n    use @auth.requires_login()\n        @auth.requires_membership(\'group name\')\n        @auth.requires_permission(\'read\',\'table name\',record_id)\n    to decorate functions that need access control\n    """\n    return dict(form=auth())\n\n\n@cache.action()\ndef download():\n    """\n    allows downloading of uploaded files\n    http://..../[app]/default/download/[filename]\n    """\n    return response.download(request, db)\n\n\ndef call():\n    """\n    exposes services. for example:\n    http://..../[app]/default/call/jsonrpc\n    decorate with @services.jsonrpc the functions to expose\n    supports xml, json, xmlrpc, jsonrpc, amfrpc, rss, csv\n    """\n    return service()\n\n\n\nresponse._vars=response._caller(index)\n'
p7
sS'snapshot'
p8
(dp9
sS'traceback'
p10
S'Traceback (most recent call last):\n  File "C:\\Users\\Josh Shih\\Desktop\\cmps183\\gluon\\restricted.py", line 227, in restricted\n    exec ccode in environment\n  File "C:\\Users\\Josh Shih\\Desktop\\cmps183\\applications\\loveslug\\controllers/default.py", line 76, in <module>\n  File "C:\\Users\\Josh Shih\\Desktop\\cmps183\\gluon\\globals.py", line 412, in <lambda>\n    self._caller = lambda f: f()\n  File "C:\\Users\\Josh Shih\\Desktop\\cmps183\\applications\\loveslug\\controllers/default.py", line 23, in index\n    if form.vars.password != None & form.vars.password == form.vars.verify_password:\nTypeError: unsupported operand type(s) for &: \'NoneType\' and \'NoneType\'\n'
p11
s.