(dp1
S'output'
p2
S"<type 'exceptions.TypeError'> string indices must be integers, not str"
p3
sS'layer'
p4
S'C:\\Users\\Kevin\\web2py\\applications\\loveslug\\views\\default/profile.html'
p5
sS'code'
p6
S'left_sidebar_enabled,right_sidebar_enabled=False,(\'message\' in globals())\nresponse.write(\'\\r\\n\', escape=False)\nresponse.write(\'<!DOCTYPE html>\\r\\n<!--[if (gt IE 9)|!(IE)]><!--> <html class="no-js" lang="\', escape=False)\nresponse.write(T.accepted_language or \'en\')\nresponse.write(\'"> <!--<![endif]-->\\r\\n  <head>\\r\\n    <meta charset="utf-8">\\r\\n    <!-- www.phpied.com/conditional-comments-block-downloads/ -->\\r\\n    <!-- Always force latest IE rendering engine\\r\\n         (even in intranet) & Chrome Frame\\r\\n         Remove this if you use the .htaccess -->\\r\\n    <meta http-equiv="X-UA-Compatible" content="IE=edge\', escape=False)\nresponse.write(not request.is_local and \',chrome=1\' or \'\')\nresponse.write(\'">\\r\\n    <!--  Mobile Viewport Fix\\r\\n          j.mp/mobileviewport & davidbcalhoun.com/2010/viewport-metatag\\r\\n          device-width: Occupy full width of the screen in its current orientation\\r\\n          initial-scale = 1.0 retains dimensions instead of zooming out if page height > device height\\r\\n          user-scalable = yes allows the user to zoom in -->\\r\\n    <meta name="viewport" content="width=device-width, initial-scale=1.0">\\r\\n    <title>\', escape=False)\nresponse.write(response.title or request.application)\nresponse.write(\'</title>\\r\\n    <!-- http://dev.w3.org/html5/markup/meta.name.html -->\\r\\n    <meta name="application-name" content="\', escape=False)\nresponse.write(request.application)\nresponse.write(\'">\\r\\n    <!-- Speaking of Google, don\\\'t forget to set your site up:\\r\\n         http://google.com/webmasters -->\\r\\n    <meta name="google-site-verification" content="">\\r\\n    <!-- include stylesheets -->\\r\\n    <link rel="stylesheet" href="\', escape=False)\nresponse.write(URL(\'static\',\'css/bootstrap.min.css\'))\nresponse.write(\'"/>\\r\\n    <link rel="stylesheet" href="\', escape=False)\nresponse.write(URL(\'static\',\'css/bootstrap-theme.min.css\'))\nresponse.write(\'"/>\\r\\n    <link rel="stylesheet" href="\', escape=False)\nresponse.write(URL(\'static\',\'css/web2py-bootstrap3.css\'))\nresponse.write(\'"/>\\r\\n    <link rel="stylesheet" href="\', escape=False)\nresponse.write(URL(\'static\',\'css/myapp.css\'))\nresponse.write(\'"/>\\r\\n    <link rel="stylesheet" href="\', escape=False)\nresponse.write(URL(\'static\', \'font-awesome-4.4.0/css/font-awesome.min.css\'))\nresponse.write(\'"/>\\r\\n    <link rel="shortcut icon" href="\', escape=False)\nresponse.write(URL(\'static\',\'images/favicon.ico\'))\nresponse.write(\'" type="image/x-icon">\\r\\n    <link rel="apple-touch-icon" href="\', escape=False)\nresponse.write(URL(\'static\',\'images/favicon.png\'))\nresponse.write(\'">\\r\\n    <!-- All JavaScript at the bottom, except for Modernizr which enables\\r\\n         HTML5 elements & feature detects -->\\r\\n    <script src="\', escape=False)\nresponse.write(URL(\'static\',\'js/modernizr-2.8.3.min.js\'))\nresponse.write(\'"></script>\\r\\n    <!--[if lt IE 9]>\\r\\n        <script src="\', escape=False)\nresponse.write(URL(\'static\',\'js/respond-1.4.2.min.js\'))\nresponse.write(\'"></script>\\r\\n        <![endif]-->\\r\\n    <!-- Favicons -->\\r\\n    \', escape=False)\nresponse.write(\'<script type="text/javascript"><!--\\r\\n    // These variables are used by the web2py_ajax_init function in web2py_ajax.js (which is loaded below).\\r\\n    var w2p_ajax_confirm_message = "\', escape=False)\nresponse.write(T(\'Are you sure you want to delete this object?\'))\nresponse.write(\'";\\r\\n    var w2p_ajax_disable_with_message = "\', escape=False)\nresponse.write(T(\'Working...\'))\nresponse.write(\'";\\r\\n    var w2p_ajax_date_format = "\', escape=False)\nresponse.write(T(\'%Y-%m-%d\'))\nresponse.write(\'";\\r\\n    var w2p_ajax_datetime_format = "\', escape=False)\nresponse.write(T(\'%Y-%m-%d %H:%M:%S\'))\nresponse.write(\'";\\r\\n    var ajax_error_500 = \\\'\', escape=False)\nresponse.write(T.M(\'An error occured, please [[reload %s]] the page\') % URL(args=request.args, vars=request.get_vars))\nresponse.write("\'\\r\\n    //--></script>\\r\\n", escape=False)\nresponse.files.insert(0,URL(\'static\',\'js/jquery.js\'))\nresponse.files.insert(1,URL(\'static\',\'css/calendar.css\'))\nresponse.files.insert(2,URL(\'static\',\'js/calendar.js\'))\nresponse.files.insert(3,URL(\'static\',\'js/web2py.js\'))\nresponse.include_meta()\nresponse.include_files()\nresponse.write(\'\\r\\n\', escape=False)\nresponse.write(\' <!-- this includes jquery.js, calendar.js/.css and web2py.js -->\\r\\n    \', escape=False)\nresponse.write(\'\\r\\n    \', escape=False)\n# using sidebars need to know what sidebar you want to use\nmc0 = \'col-md-12\'\nmc1 = \'col-md-9\'\nmc2 = \'col-md-6\'\nleft_sidebar_enabled = globals().get(\'left_sidebar_enabled\', False)\nright_sidebar_enabled = globals().get(\'right_sidebar_enabled\', False)\nmiddle_column = {0: mc0, 1: mc1, 2: mc2}[\n(left_sidebar_enabled and 1 or 0)+(right_sidebar_enabled and 1 or 0)]\nresponse.write(\'\\r\\n  </head>\\r\\n  <body>\\r\\n    <!--[if lt IE 8]><p class="browserupgrade">You are using an <strong>outdated</strong> browser. Please <a href="http://browsehappy.com/">upgrade your browser</a> to improve your experience.</p><![endif]-->\\r\\n    <div class="flash alert alert-dismissable">\', escape=False)\nresponse.write(response.flash or \'\')\nresponse.write(\'</div>\\r\\n    <!-- Navbar ======================================= -->\\r\\n    <nav class="navbar navbar-inverse navbar-fixed-top" role="navigation">\\r\\n      <div class="container-fluid">\\r\\n        <div class="navbar-header">\\r\\n          <button type="button" class="navbar-toggle" data-toggle="collapse" data-target=".navbar-collapse">\\r\\n            <span class="sr-only">Toggle navigation</span>\\r\\n            <span class="icon-bar"></span>\\r\\n            <span class="icon-bar"></span>\\r\\n            <span class="icon-bar"></span>\\r\\n          </button>\\r\\n          \', escape=False)\nresponse.write(response.logo or \'\')\nresponse.write(\'\\r\\n        </div>\\r\\n        <div class="collapse navbar-collapse navbar-ex1-collapse">\\r\\n          <ul class="nav navbar-nav navbar-right">\\r\\n            \', escape=False)\nresponse.write(\'auth\' in globals() and auth.navbar(\'Welcome\',mode=\'dropdown\') or \'\')\nresponse.write(\'\\r\\n          </ul>\\r\\n          \', escape=False)\nif response.menu:\n    response.write(\'\\r\\n          \', escape=False)\n    response.write(MENU(response.menu, _class=\'nav navbar-nav\',li_class=\'dropdown\',ul_class=\'dropdown-menu\'))\n    response.write(\'\\r\\n          \', escape=False)\n    pass\nresponse.write(\'\\r\\n        </div>\\r\\n      </div>\\r\\n    </nav>\\r\\n    <!-- Masthead ===================================== -->\\r\\n    \', escape=False)\nresponse.write(\'\\r\\n    \', escape=False)\nresponse.write(\'\\r\\n    <!-- Main ========================================= -->\\r\\n    <!-- Begin page content -->\\r\\n    \', escape=False)\nif auth.user_id is None:\n    response.write(\'\\r\\n    \', escape=False)\nelse:\n    response.write(\'\\r\\n\\r\\n    <div class="row">\\r\\n        <div class="col-md-12">\\r\\n            <!-- NAVI BAR -->\\r\\n            <nav class="navbar navbar-inverse" role="navigation">\\r\\n                <div class="navbar-header">\\r\\n                    <button type="button" class="navbar-toggle" data-toggle="collapse" data-target="#bs-example-navbar-collapse-1">\\r\\n                        <span class="sr-only">Toggle navigation</span><span class="icon-bar"></span><span class="icon-bar"></span><span class="icon-bar"></span>\\r\\n                    </button> <a class="navbar-brand" href="#"><img src="http://i.imgur.com/BRPgVCW.png" alt="LoveSlugs"></a>\\r\\n                </div>\\r\\n                <div class="collapse navbar-collapse" id="bs-example-navbar-collapse-1">\\r\\n                    <ul class="nav navbar-nav">\\r\\n                        <li>\\r\\n                            \', escape=False)\n    response.write(A(\'HOME\', _href=URL(\'index\')))\n    response.write(\'\\r\\n                        </li>\\r\\n                        <li>\\r\\n                            \', escape=False)\n    response.write(A(\'MESSAGES\', _href=URL(\'messages\')))\n    response.write(\'\\r\\n                        </li>\\r\\n                        <li class="dropdown">\\r\\n                            <a href="profile.html" class="dropdown-toggle" data-toggle="dropdown">PROFILE</a>\\r\\n                            <ul class="dropdown-menu">\\r\\n                                <li>\\r\\n                                    \', escape=False)\n    response.write(A(\'View Profile\', _href=URL(\'myprofile\')))\n    response.write(\'\\r\\n                                </li>\\r\\n                                <li>\\r\\n                                    \', escape=False)\n    response.write(A(\'Edit Profile\', _href=URL(\'editprofile\')))\n    response.write(\'\\r\\n                                </li>\\r\\n                                <li>\\r\\n                                    \', escape=False)\n    response.write(A(\'Settings\', _href=URL(\'settings\')))\n    response.write(\'\\r\\n                                </li>\\r\\n                            </ul>\\r\\n                        </li>\\r\\n                    </ul>\\r\\n                    <ul class="nav navbar-nav navbar-right">\\r\\n                        <li>\\r\\n                            <p class="navbar-text">Signed in as \', escape=False)\n    response.write(auth.user.first_name)\n    response.write(\' \', escape=False)\n    response.write(auth.user.last_name)\n    response.write(\'</p>\\r\\n                        </li>\\r\\n                        <li>\\r\\n                            \', escape=False)\n    response.write(A(\'LOG OUT\', _href=URL(\'user\', args=[\'logout\'])))\n    response.write(\'\\r\\n                        </li>\\r\\n                    </ul>\\r\\n                </div>\\r\\n            </nav>\\r\\n        </div>\\r\\n    </div>\\r\\n    \', escape=False)\n    pass\nresponse.write(\'\\r\\n\\r\\n    <div class="container-fluid main-container">\\r\\n      \', escape=False)\nif left_sidebar_enabled:\n    response.write(\'\\r\\n        <div class="col-md-3 left-sidebar">\\r\\n            \', escape=False)\n    response.write(\'\\r\\n            <h3>Left Sidebar</h3>\\r\\n            <p></p>\\r\\n            \', escape=False)\n    response.write(\'\\r\\n        </div>\\r\\n      \', escape=False)\n    pass\nresponse.write(\'\\r\\n\\r\\n      <div class="\', escape=False)\nresponse.write(middle_column)\nresponse.write(\'">\\r\\n        \', escape=False)\nresponse.write(\'\\r\\n        \', escape=False)\nresponse.write(\'\\r\\n\\r\\n<body class="background">\\r\\n  <div class="container-fluid">\\r\\n    <div class="title col-md-12">\\r\\n      <center><h1>\\r\\n        PUBLIC PROFILE\\r\\n      </h1></center><br>\\r\\n        <center><p>\\r\\n        <!-- TIPS -->\\r\\n          <!-- RACTIVE -->\\r\\n          <div id="target"></div>\\r\\n            <script id="template" type="text/ractive">\\r\\n               <medium style="color:white; cursor:default" on-click="changeTip">\\r\\n                 \\\'\\\' -{% tip_box %}\\\'\\\'\\r\\n               </medium>\\r\\n            </script>\\r\\n        </p>\\r\\n        </center><br><br>\\r\\n      <br>\\r\\n      <br>\\r\\n    </div>\\r\\n    <div class="row">\\r\\n      <div class="col-md-4">\\r\\n      </div>\\r\\n      <div class="form col-md-4">\\r\\n        <center>\\r\\n          <h3>\', escape=False)\nresponse.write(thisprofile[-1].your_name)\nresponse.write(\'</h3>\\r\\n          <span><img src="\', escape=False)\nresponse.write(URL(\'default\', \'download\', args=thisprofile[-1].image))\nresponse.write(\'" alt="Profile Picture" style="width:300px;height:300px;border:1px solid #000000;"/></span><br>\\r\\n          <br><br>\\r\\n          <table border="0" style="width:80%">\\r\\n            <tr><td>Birthday:</td><td>\', escape=False)\nresponse.write(thisprofile[-1].birthday)\nresponse.write(\'</td> </tr>\\r\\n            <tr><td>Gender:</td><td>\', escape=False)\nresponse.write(thisprofile[-1].gender)\nresponse.write(\'</td></tr>\\r\\n            <tr><td>Seeking a:</td><td>\', escape=False)\nresponse.write(thisprofile[-1].seeking_a)\nresponse.write(\'</td></tr>\\r\\n            <tr><td>About Me:</td><td>\', escape=False)\nresponse.write((thisprofile[-1].about_me))\nresponse.write(\'</td></tr>\\r\\n            <tr><td>Interests:</td><td>\', escape=False)\nresponse.write(thisprofile[-1].interests)\nresponse.write(\'</td></tr>\\r\\n            <tr><td>Major:</td><td>\', escape=False)\nresponse.write(thisprofile[-1].major)\nresponse.write(\'</td></tr>\\r\\n            <tr><td>Location:</td><td>\', escape=False)\nresponse.write(thisprofile[-1].college)\nresponse.write(\'</td></tr>\\r\\n            \', escape=False)\nfor users in thumb_profile[-1]:\n    response.write(\'\\r\\n              \', escape=False)\n    if auth.user:\n        response.write(\'\\r\\n                <span class="thumb-rating" data-picid="\', escape=False)\n        response.write(users[\'profile_id\'])\n        response.write(\'">\\r\\n                  <input class="form-control rating" value="\', escape=False)\n        response.write(users[\'thumbs\'])\n        response.write(\'" style="display:none"/>\\r\\n                    <span class="thumbs-up">\\r\\n                      <i class="fa fa-thumbs-o-up"></i>\\r\\n                    </span>\\r\\n                    <span class="thumbs-down">\\r\\n                      <i class="fa fa-thumbs-o-down"></i>\\r\\n                    </span>\\r\\n                </span>\\r\\n              \', escape=False)\n        pass\n    response.write(\'\\r\\n            \', escape=False)\n    pass\nresponse.write(\'\\r\\n            \', escape=False)\npass\nresponse.write(\'\\r\\n          </table>\\r\\n          <br><br>\\r\\n          <div id="message-box" style="width:75%"></div>\\r\\n        </center>\\r\\n      </div>\\r\\n      <div class="col-md-4">\\r\\n      </div>\\r\\n    </div>\\r\\n  </div>\\r\\n</body>\\r\\n\\r\\n\\r\\n\\r\\n\\r\\n<script>\\r\\njQuery(\\\'span.thumb-rating\\\').each(function(){\\r\\n  // For each thumb rating span, let\\\'s find some key elements.\\r\\n  // \\\'this\\\' can vary in javascript, so let\\\'s have the span.thumb-rating on which\\r\\n  // this function is called be stored in a variable called \\\'self\\\'.\\r\\n  var self = jQuery(this);\\r\\n  // First, the input, so using val() we can know whether the thumb is up (\\\'u\\\'),\\r\\n  // down (\\\'d\\\'), or not defined (\\\'\\\', or none of the above values).\\r\\n  var input_el = self.find("input");\\r\\n  // And the thumbs up and down.\\r\\n  var thumbs_up = self.find("span.thumbs-up i.fa");\\r\\n  var thumbs_down = self.find("span.thumbs-down i.fa");\\r\\n  var span_up = self.find("span.thumbs-up");\\r\\n  var span_down = self.find("span.thumbs-down");\\r\\n  // And the picture id.\\r\\n  var picid = self.attr(\\\'data-picid\\\');\\r\\n\\r\\n  // To cause a thumbs_up to appear filled, you add to it the class fa-thumbs-up;\\r\\n  // to cause it to appear unfilled, you add to the i.fa element the class fa-thumbs-o-up.\\r\\n  // For instance: thumbs_up.removeClass("fa-thumbs-o-up").addClass("fa-thumbs-up")\\r\\n  // would fill it.\\r\\n\\r\\n  var do_thumbs_up = function() {\\r\\n    // Write here a function that fills the thumbs up, and unfills the thumbs down.\\r\\n      thumbs_up.removeClass("fa-thumbs-o-up").addClass("fa-thumbs-up");\\r\\n      thumbs_down.removeClass("fa-thumbs-down").addClass("fa-thumbs-o-up");\\r\\n  };\\r\\n  var do_thumbs_down = function() {\\r\\n    // Write here a function that fills the thumbs down, and unfills the thumbs up.\\r\\n\\r\\n      thumbs_down.removeClass("fa-thumbs-o-up").addClass("fa-thumbs-down");\\r\\n      thumbs_up.removeClass("fa-thumbs-up").addClass("fa-thumbs-o-up");\\r\\n\\r\\n  };\\r\\n  var do_no_thumbs = function() {\\r\\n    // Write here a function that unfills both thumbs.\\r\\n      thumbs_up.removeClass("fa-thumbs-up").addClass("fa-thumbs-o-up");\\r\\n      thumbs_down.removeClass("fa-thumbs-down").addClass("fa-thumbs-o-up");\\r\\n\\r\\n  };\\r\\n\\r\\n  // Using the above functions, write a function that displays the correct state of the\\r\\n  // thumbs up and down according to the value of the input.\\r\\n  var show_thumbs = function() {\\r\\n    // Write code here.\\r\\n\\r\\n    if (input_el.val() == \\\'u\\\') {\\r\\n        do_thumbs_up();\\r\\n    }else if(input_el.val() == \\\'d\\\'){\\r\\n        do_thumbs_down();\\r\\n    } else{\\r\\n        do_no_thumbs();\\r\\n    }\\r\\n  };\\r\\n\\r\\n  function send_thumbs(thumbs) {\\r\\n    // This function sends to the server the thumb status, which should be\\r\\n    // one of \\\'u\\\', \\\'d\\\', or \\\'\\\'.  Call it from the click handlers.\\r\\n    jQuery.post(\\r\\n            \\\'\', escape=False)\nresponse.write(URL(\'vote\', user_signature=True))\nresponse.write(\'\\\', // URL for the AJAX call\\r\\n            {   // Dictionary of names to values. The server will have:\\r\\n              \\\'picid\\\': picid,  // request.vars.picid\\r\\n              \\\'thumbs\\\': thumbs   // request.vars.thumbs\\r\\n\\r\\n\\r\\n            }\\r\\n    );\\r\\n  }\\r\\n\\r\\n  // You have to add handlers for hover and click to the thumbs up and down.\\r\\n  span_up.on("mouseover", function() {\\r\\n    // Write here what to do on mouseover of thumbs up.\\r\\n\\r\\n      do_thumbs_up();\\r\\n\\r\\n\\r\\n  });\\r\\n  span_down.on("mouseover", function() {\\r\\n    // Write here what to do on mouseover of thumbs down.\\r\\n\\r\\n      do_thumbs_down();\\r\\n\\r\\n  });\\r\\n  span_up.on("click", function() {\\r\\n    // Write here what to do on click of thumbs up.\\r\\n\\r\\n\\r\\n      input_el.val(\\\'u\\\');\\r\\n      send_thumbs(\\\'u\\\');\\r\\n      do_thumbs_up();\\r\\n      show_thumbs();\\r\\n\\r\\n  });\\r\\n  span_down.on("click", function() {\\r\\n    // Write here what to do on click of thumbs down.\\r\\n\\r\\n      input_el.val(\\\'d\\\');\\r\\n      send_thumbs(\\\'d\\\');\\r\\n      do_thumbs_down();\\r\\n      show_thumbs();\\r\\n\\r\\n  });\\r\\n\\r\\n  self.on("mouseout", function() {\\r\\n    // Write here what to do when the mouse leaves the span with the\\r\\n    // thumbs up and down.\\r\\n\\r\\n      show_thumbs();\\r\\n\\r\\n  });\\r\\n\\r\\n  // This is used to initialize the thumbs.\\r\\n  show_thumbs();\\r\\n});\\r\\n</script>\\r\\n\\r\\n\\r\\n\\r\\n<script id="message-template" type="text/ractive">\\r\\n    <button on-click="clicked-message" style="background-color: transparent;color: white">Message \', escape=False)\nresponse.write(thisprofile[-1].your_name)\nresponse.write(\'</button>\\r\\n    {% #if show_message_edit %}\\r\\n    <h5><br><br>Send a Message</h5>\\r\\n    <table style="width: 100%">\\r\\n        <tr>\\r\\n            <td>\\r\\n                Subject:\\r\\n            </td>\\r\\n            <td>\\r\\n                <textarea on-blur="update-subject" id="subject-field" rows=1 style="width: 100%; resize: none;  background-color: transparent; color: white"></textarea>\\r\\n            </td>\\r\\n        </tr>\\r\\n        <tr>\\r\\n            <td>\\r\\n                Body:\\r\\n            </td>\\r\\n            <td>\\r\\n                <textarea on-blur="update-text" id="text-field" rows=18 style="width: 100%; height: 80px; resize: none; background-color: transparent; color: white"></textarea>\\r\\n            </td>\\r\\n        </tr>\\r\\n    </table>\\r\\n    <br />\\r\\n    <button on-click="send-reply" style="background-color: transparent;color: white">\\r\\n    Send\\r\\n    </button>\\r\\n    <button on-click="back" style="background-color: transparent;color: white">\\r\\n    Back\\r\\n    </button>\\r\\n    {% /if %}\\r\\n</script>\\r\\n\\r\\n<script>\\r\\n    $(function() {\\r\\n        // Ractive object\\r\\n        var RACTIVE = new Ractive({\\r\\n            el: \\\'#message-box\\\',\\r\\n            template: \\\'#message-template\\\',\\r\\n            delimiters: [\\\'{%\\\', \\\'%}\\\'],\\r\\n            tripleDelimiters: [\\\'{%%\\\', \\\'%%}\\\'],\\r\\n            data: {\\r\\n                show_message_edit: false,\\r\\n                text: \\\'\\\',\\r\\n                subject: \\\'\\\',\\r\\n                tip_dict: {},\\r\\n                tip_box: "",\\r\\n            },\\r\\n        });\\r\\n\\r\\n        RACTIVE.on("clicked-message", function(e){\\r\\n            RACTIVE.set(\\\'show_message_edit\\\', true);\\r\\n        });\\r\\n\\r\\n        RACTIVE.on("update-text", function(e){\\r\\n            RACTIVE.set(\\\'text\\\', e.node.value);\\r\\n        });\\r\\n\\r\\n        RACTIVE.on("update-subject", function(e){\\r\\n            RACTIVE.set(\\\'subject\\\', e.node.value);\\r\\n        });\\r\\n\\r\\n        RACTIVE.on("send-reply", function(e){\\r\\n            var to = Number(\', escape=False)\nresponse.write(thisprofile[-1].user_id)\nresponse.write(\');\\r\\n            var subject = RACTIVE.get(\\\'subject\\\');\\r\\n            var body = RACTIVE.get(\\\'text\\\');\\r\\n            sendMessage(to, subject, body);\\r\\n            RACTIVE.set(\\\'text\\\', \\\'\\\');\\r\\n            RACTIVE.set(\\\'subject\\\', \\\'\\\');\\r\\n            RACTIVE.set(\\\'show_message_edit\\\', false);\\r\\n        });\\r\\n\\r\\n        RACTIVE.on("back", function(e){\\r\\n            RACTIVE.set(\\\'text\\\', \\\'\\\');\\r\\n            RACTIVE.set(\\\'subject\\\', \\\'\\\');\\r\\n            RACTIVE.set(\\\'show_message_edit\\\', false);\\r\\n        });\\r\\n\\r\\n        var sendMessage = function(rec, subject, body){\\r\\n            $.ajax("\', escape=False)\nresponse.write(URL(\'default\', \'send_message\', user_signature=True))\nresponse.write(\'",\\r\\n                    {\\r\\n                        data: {\\r\\n                            message_id: generateUUID(),\\r\\n                            receiver: rec, // request.vars.msg\\r\\n                            body: body, // request.vars.is_draft\\r\\n                            subject: subject // request.vars.msg_id\\r\\n                        },\\r\\n                        method: \\\'POST\\\',\\r\\n                        success: function() {\\r\\n                        },\\r\\n                        error: function() {}\\r\\n                    }\\r\\n            );\\r\\n        };\\r\\n\\r\\n        // http://stackoverflow.com/questions/105034/create-guid-uuid-in-javascript\\r\\n        function generateUUID(){\\r\\n            var d = new Date().getTime();\\r\\n            if(window.performance && typeof window.performance.now === "function"){\\r\\n                d += performance.now();; //use high-precision timer if available\\r\\n            }\\r\\n            var uuid = \\\'xxxxxxxx-xxxx-4xxx-yxxx-xxxxxxxxxxxx\\\'.replace(/[xy]/g, function(c) {\\r\\n                var r = (d + Math.random()*16)%16 | 0;\\r\\n                d = Math.floor(d/16);\\r\\n                return (c==\\\'x\\\' ? r : (r&0x3|0x8)).toString(16);\\r\\n            });\\r\\n            return uuid;\\r\\n        }\\r\\n\\r\\n        $.ajax("\', escape=False)\nresponse.write(URL(\'default\',\'loadTips\', args="0"))\nresponse.write(\'",\\r\\n            {\\r\\n                method: \\\'POST\\\',\\r\\n                success: function (data) {\\r\\n                    MAIN.set(\\\'tip_dict\\\', data[\\\'tip_dict\\\']);\\r\\n                }\\r\\n            }\\r\\n        );\\r\\n        function load_tip(){\\r\\n            $.ajax("\', escape=False)\nresponse.write(URL(\'default\', \'selRandTip\', args="0"))\nresponse.write(\'",\\r\\n                {\\r\\n                    method: \\\'POST\\\',\\r\\n                    success: function (data) {\\r\\n                        MAIN.set(\\\'tip_box\\\', data);\\r\\n                    }\\r\\n                }\\r\\n            )\\r\\n        }\\r\\n        load_tip();\\r\\n        MAIN.on("changeTip", function(e){\\r\\n            load_tip();\\r\\n        });\\r\\n    });\\r\\n\\r\\n</script>\\r\\n\', escape=False)\nresponse.write(\'\\r\\n        \', escape=False)\nresponse.write(\'\\r\\n      </div>\\r\\n\\r\\n      \', escape=False)\nif right_sidebar_enabled:\n    response.write(\'\\r\\n        <div class="col-md-3">\\r\\n            \', escape=False)\n    response.write(\'\\r\\n            <h3>Right Sidebar</h3>\\r\\n            <p></p>\\r\\n            \', escape=False)\n    response.write(\'\\r\\n        </div>\\r\\n      \', escape=False)\n    pass\nresponse.write(\'\\r\\n\\r\\n    </div>\\r\\n\\r\\n    \', escape=False)\nresponse.write(\' <!-- this is default footer -->\\r\\n    <footer class="footer">\\r\\n      <div class="container-fluid">\\r\\n        <div class="copyright pull-left">\', escape=False)\nresponse.write(T(\'Copyright\'))\nresponse.write(\' &#169; \', escape=False)\nresponse.write(request.now.year)\nresponse.write(\'</div>\\r\\n          <div id="poweredBy" class="pull-right">\\r\\n            \', escape=False)\nresponse.write(T(\'Powered by\'))\nresponse.write(\'\\r\\n            <a href="http://www.web2py.com/">web2py</a>\\r\\n          </div>\\r\\n      </div>\\r\\n    </footer>\\r\\n    \', escape=False)\nresponse.write(\'\\r\\n    <!-- The javascript =============================== -->\\r\\n    <script src="\', escape=False)\nresponse.write(URL(\'static\',\'js/bootstrap.min.js\'))\nresponse.write(\'"></script>\\r\\n    <script src="\', escape=False)\nresponse.write(URL(\'static\',\'js/web2py-bootstrap3.js\'))\nresponse.write(\'"></script>\\r\\n    <script src="\', escape=False)\nresponse.write(URL(\'static\', \'js/ractive.min.js\'))\nresponse.write(\'"></script>\\r\\n    \', escape=False)\nresponse.write(\'\\r\\n    \', escape=False)\nif response.google_analytics_id:\n    response.write(\'\\r\\n    <!-- Analytics ==================================== -->\\r\\n    <script src="\', escape=False)\n    response.write(URL(\'static\',\'js/analytics.min.js\'))\n    response.write(\'"></script>\\r\\n    <script type="text/javascript">\\r\\n      analytics.initialize({\\r\\n      \\\'Google Analytics\\\':{trackingId:\\\'\', escape=False)\n    response.write(response.google_analytics_id)\n    response.write("\'}\\r\\n      });\\r\\n    </script>\\r\\n    ", escape=False)\n    pass\nresponse.write(\'\\r\\n    <!-- Share ============================y============ -->\\r\\n    <script src="\', escape=False)\nresponse.write(URL(\'static\',\'js/share.js\',vars=dict(static=URL(\'static\',\'images\'))))\nresponse.write(\'"></script>\\r\\n  </body>\\r\\n</html>\\r\\n\', escape=False)'
p7
sS'snapshot'
p8
(dp9
S'exception'
p10
(dp11
S'__hash__'
p12
S"<method-wrapper '__hash__' of exceptions.TypeError object>"
p13
sS'__setattr__'
p14
S"<method-wrapper '__setattr__' of exceptions.TypeError object>"
p15
sS'__reduce_ex__'
p16
S'<built-in method __reduce_ex__ of exceptions.TypeError object>'
p17
sS'__getslice__'
p18
S"<method-wrapper '__getslice__' of exceptions.TypeError object>"
p19
sS'__getitem__'
p20
S"<method-wrapper '__getitem__' of exceptions.TypeError object>"
p21
sS'__setstate__'
p22
S'<built-in method __setstate__ of exceptions.TypeError object>'
p23
sS'__reduce__'
p24
S'<built-in method __reduce__ of exceptions.TypeError object>'
p25
sS'__str__'
p26
S"<method-wrapper '__str__' of exceptions.TypeError object>"
p27
sS'__format__'
p28
S'<built-in method __format__ of exceptions.TypeError object>'
p29
sS'__getattribute__'
p30
S"<method-wrapper '__getattribute__' of exceptions.TypeError object>"
p31
sS'__class__'
p32
S"<type 'exceptions.TypeError'>"
p33
sS'__unicode__'
p34
S'<built-in method __unicode__ of exceptions.TypeError object>'
p35
sS'__delattr__'
p36
S"<method-wrapper '__delattr__' of exceptions.TypeError object>"
p37
sS'__subclasshook__'
p38
S'<built-in method __subclasshook__ of type object>'
p39
sS'__repr__'
p40
S"<method-wrapper '__repr__' of exceptions.TypeError object>"
p41
sS'__dict__'
p42
S'{}'
p43
sS'args'
p44
S"('string indices must be integers, not str',)"
p45
sS'__sizeof__'
p46
S'<built-in method __sizeof__ of exceptions.TypeError object>'
p47
sS'__doc__'
p48
S"'Inappropriate argument type.'"
p49
sS'__init__'
p50
S"<method-wrapper '__init__' of exceptions.TypeError object>"
p51
sS'__new__'
p52
S'<built-in method __new__ of type object>'
p53
ssS'evalue'
p54
S'string indices must be integers, not str'
p55
sS'request'
p56
cgluon.html
XML_unpickle
p57
(S's\x96`\x00\x00<div><table><tr><td style="font-weight:bold;vertical-align:top;">ajax</td><td style="vertical-align:top;">:</td><td><div>False</div></td></tr><tr><td style="font-weight:bold;vertical-align:top;">application</td><td style="vertical-align:top;">:</td><td><div>loveslug</div></td></tr><tr><td style="font-weight:bold;vertical-align:top;">args</td><td style="vertical-align:top;">:</td><td><div><table><tr><td><div>2</div></td></tr></table></div></td></tr><tr><td style="font-weight:bold;vertical-align:top;">cid</td><td style="vertical-align:top;">:</td><td><div>None</div></td></tr><tr><td style="font-weight:bold;vertical-align:top;">client</td><td style="vertical-align:top;">:</td><td><div>127.0.0.1</div></td></tr><tr><td style="font-weight:bold;vertical-align:top;">controller</td><td style="vertical-align:top;">:</td><td><div>default</div></td></tr><tr><td style="font-weight:bold;vertical-align:top;">cookies</td><td style="vertical-align:top;">:</td><td><div><table><tr><td style="font-weight:bold;vertical-align:top;">session_id_admin</td><td style="vertical-align:top;">:</td><td><div>127.0.0.1-cbf03b3a-3a3b-4564-95fa-96b77ff7fb2e<table><tr><td style="font-weight:bold;vertical-align:top;">comment</td><td style="vertical-align:top;">:</td><td><div></div></td></tr><tr><td style="font-weight:bold;vertical-align:top;">domain</td><td style="vertical-align:top;">:</td><td><div></div></td></tr><tr><td style="font-weight:bold;vertical-align:top;">expires</td><td style="vertical-align:top;">:</td><td><div></div></td></tr><tr><td style="font-weight:bold;vertical-align:top;">httponly</td><td style="vertical-align:top;">:</td><td><div></div></td></tr><tr><td style="font-weight:bold;vertical-align:top;">max-age</td><td style="vertical-align:top;">:</td><td><div></div></td></tr><tr><td style="font-weight:bold;vertical-align:top;">path</td><td style="vertical-align:top;">:</td><td><div></div></td></tr><tr><td style="font-weight:bold;vertical-align:top;">secure</td><td style="vertical-align:top;">:</td><td><div></div></td></tr><tr><td style="font-weight:bold;vertical-align:top;">version</td><td style="vertical-align:top;">:</td><td><div></div></td></tr></table></div></td></tr><tr><td style="font-weight:bold;vertical-align:top;">session_id_loveslug</td><td style="vertical-align:top;">:</td><td><div>127.0.0.1-b1f5e8a5-f726-494d-b6c7-5330e3a503a1<table><tr><td style="font-weight:bold;vertical-align:top;">comment</td><td style="vertical-align:top;">:</td><td><div></div></td></tr><tr><td style="font-weight:bold;vertical-align:top;">domain</td><td style="vertical-align:top;">:</td><td><div></div></td></tr><tr><td style="font-weight:bold;vertical-align:top;">expires</td><td style="vertical-align:top;">:</td><td><div></div></td></tr><tr><td style="font-weight:bold;vertical-align:top;">httponly</td><td style="vertical-align:top;">:</td><td><div></div></td></tr><tr><td style="font-weight:bold;vertical-align:top;">max-age</td><td style="vertical-align:top;">:</td><td><div></div></td></tr><tr><td style="font-weight:bold;vertical-align:top;">path</td><td style="vertical-align:top;">:</td><td><div></div></td></tr><tr><td style="font-weight:bold;vertical-align:top;">secure</td><td style="vertical-align:top;">:</td><td><div></div></td></tr><tr><td style="font-weight:bold;vertical-align:top;">version</td><td style="vertical-align:top;">:</td><td><div></div></td></tr></table></div></td></tr><tr><td style="font-weight:bold;vertical-align:top;">session_id_welcome</td><td style="vertical-align:top;">:</td><td><div>127.0.0.1-cfb661da-c001-4e9c-ac45-a2e59b5a7cb1<table><tr><td style="font-weight:bold;vertical-align:top;">comment</td><td style="vertical-align:top;">:</td><td><div></div></td></tr><tr><td style="font-weight:bold;vertical-align:top;">domain</td><td style="vertical-align:top;">:</td><td><div></div></td></tr><tr><td style="font-weight:bold;vertical-align:top;">expires</td><td style="vertical-align:top;">:</td><td><div></div></td></tr><tr><td style="font-weight:bold;vertical-align:top;">httponly</td><td style="vertical-align:top;">:</td><td><div></div></td></tr><tr><td style="font-weight:bold;vertical-align:top;">max-age</td><td style="vertical-align:top;">:</td><td><div></div></td></tr><tr><td style="font-weight:bold;vertical-align:top;">path</td><td style="vertical-align:top;">:</td><td><div></div></td></tr><tr><td style="font-weight:bold;vertical-align:top;">secure</td><td style="vertical-align:top;">:</td><td><div></div></td></tr><tr><td style="font-weight:bold;vertical-align:top;">version</td><td style="vertical-align:top;">:</td><td><div></div></td></tr></table></div></td></tr></table></div></td></tr><tr><td style="font-weight:bold;vertical-align:top;">env</td><td style="vertical-align:top;">:</td><td><div><table><tr><td style="font-weight:bold;vertical-align:top;">HTTP_ACCEPT</td><td style="vertical-align:top;">:</td><td><div>text/html,application/xhtml+xml,application/xml;q=0.9,image/webp,*/*;q=0.8</div></td></tr><tr><td style="font-weight:bold;vertical-align:top;">HTTP_ACCEPT_ENCODING</td><td style="vertical-align:top;">:</td><td><div>gzip, deflate, sdch</div></td></tr><tr><td style="font-weight:bold;vertical-align:top;">HTTP_ACCEPT_LANGUAGE</td><td style="vertical-align:top;">:</td><td><div>en-US,en;q=0.8</div></td></tr><tr><td style="font-weight:bold;vertical-align:top;">HTTP_CACHE_CONTROL</td><td style="vertical-align:top;">:</td><td><div>max-age=0</div></td></tr><tr><td style="font-weight:bold;vertical-align:top;">HTTP_CONNECTION</td><td style="vertical-align:top;">:</td><td><div>keep-alive</div></td></tr><tr><td style="font-weight:bold;vertical-align:top;">HTTP_COOKIE</td><td style="vertical-align:top;">:</td><td><div>session_id_admin=127.0.0.1-cbf03b3a-3a3b-4564-95fa-96b77ff7fb2e; session_id_welcome=127.0.0.1-cfb661da-c001-4e9c-ac45-a2e59b5a7cb1; session_id_loveslug=127.0.0.1-b1f5e8a5-f726-494d-b6c7-5330e3a503a1</div></td></tr><tr><td style="font-weight:bold;vertical-align:top;">HTTP_HOST</td><td style="vertical-align:top;">:</td><td><div>127.0.0.1:8080</div></td></tr><tr><td style="font-weight:bold;vertical-align:top;">HTTP_REFERER</td><td style="vertical-align:top;">:</td><td><div>http://127.0.0.1:8080/loveslug/default/index/login</div></td></tr><tr><td style="font-weight:bold;vertical-align:top;">HTTP_UPGRADE_INSECURE_REQUESTS</td><td style="vertical-align:top;">:</td><td><div>1</div></td></tr><tr><td style="font-weight:bold;vertical-align:top;">HTTP_USER_AGENT</td><td style="vertical-align:top;">:</td><td><div>Mozilla/5.0 (Windows NT 6.1; WOW64) AppleWebKit/537.36 (KHTML, like Gecko) Chrome/47.0.2526.80 Safari/537.36</div></td></tr><tr><td style="font-weight:bold;vertical-align:top;">PATH_INFO</td><td style="vertical-align:top;">:</td><td><div>/loveslug/default/profile/2</div></td></tr><tr><td style="font-weight:bold;vertical-align:top;">QUERY_STRING</td><td style="vertical-align:top;">:</td><td><div></div></td></tr><tr><td style="font-weight:bold;vertical-align:top;">REMOTE_ADDR</td><td style="vertical-align:top;">:</td><td><div>127.0.0.1</div></td></tr><tr><td style="font-weight:bold;vertical-align:top;">REMOTE_PORT</td><td style="vertical-align:top;">:</td><td><div>54478</div></td></tr><tr><td style="font-weight:bold;vertical-align:top;">REQUEST_METHOD</td><td style="vertical-align:top;">:</td><td><div>GET</div></td></tr><tr><td style="font-weight:bold;vertical-align:top;">SCRIPT_NAME</td><td style="vertical-align:top;">:</td><td><div></div></td></tr><tr><td style="font-weight:bold;vertical-align:top;">SERVER_NAME</td><td style="vertical-align:top;">:</td><td><div>Kevin-MSI</div></td></tr><tr><td style="font-weight:bold;vertical-align:top;">SERVER_PORT</td><td style="vertical-align:top;">:</td><td><div>8080</div></td></tr><tr><td style="font-weight:bold;vertical-align:top;">SERVER_PROTOCOL</td><td style="vertical-align:top;">:</td><td><div>HTTP/1.1</div></td></tr><tr><td style="font-weight:bold;vertical-align:top;">SERVER_SOFTWARE</td><td style="vertical-align:top;">:</td><td><div>Rocket 1.2.6</div></td></tr><tr><td style="font-weight:bold;vertical-align:top;">app_folders</td><td style="vertical-align:top;">:</td><td><div>set([&#x27;C:\\\\Users\\\\Kevin\\\\web2py\\\\applications\\\\welcome\\\\&#x27;, &#x27;C:\\\\Users\\\\Kevin\\\\web2py\\\\applications\\\\loveslug\\\\&#x27;])</div></td></tr><tr><td style="font-weight:bold;vertical-align:top;">applications_parent</td><td style="vertical-align:top;">:</td><td><div>C:\\Users\\Kevin\\web2py</div></td></tr><tr><td style="font-weight:bold;vertical-align:top;">cmd_args</td><td style="vertical-align:top;">:</td><td><div><table></table></div></td></tr><tr><td style="font-weight:bold;vertical-align:top;">cmd_options</td><td style="vertical-align:top;">:</td><td><div>&lt;Values at 0x3e2aac8: {&#x27;verbose&#x27;: False, &#x27;ip&#x27;: &#x27;127.0.0.1&#x27;, &#x27;debuglevel&#x27;: 30, &#x27;with_scheduler&#x27;: False, &#x27;ips&#x27;: [&#x27;169.233.9.58&#x27;, &#x27;fe80::f97d:14b9:84dd:e770%22&#x27;, &#x27;fe80::200:5efe:169.233.9.58%24&#x27;, &#x27;2002:a9e9:93a::a9e9:93a&#x27;, &#x27;fe80::7494:5eeb:f8b5:f26c%11&#x27;, &#x27;192.168.158.1&#x27;], &#x27;shutdown_timeout&#x27;: 5, &#x27;taskbar&#x27;: False, &#x27;with_coverage&#x27;: False, &#x27;scheduler_groups&#x27;: None, &#x27;port&#x27;: 8000, &#x27;maxthreads&#x27;: None, &#x27;softcron&#x27;: False, &#x27;server_name&#x27;: &#x27;Kevin-MSI&#x27;, &#x27;bpython&#x27;: False, &#x27;nogui&#x27;: False, &#x27;pid_filename&#x27;: &#x27;httpserver.pid&#x27;, &#x27;print_errors&#x27;: False, &#x27;extcron&#x27;: False, &#x27;runcron&#x27;: False, &#x27;run_system_tests&#x27;: False, &#x27;test&#x27;: None, &#x27;folder&#x27;: &#x27;C:\\\\Users\\\\Kevin\\\\web2py&#x27;, &#x27;config&#x27;: &#x27;&#x27;, &#x27;minthreads&#x27;: None, &#x27;shell&#x27;: None, &#x27;run&#x27;: &#x27;&#x27;, &#x27;log_filename&#x27;: &#x27;httpserver.log&#x27;, &#x27;profiler_dir&#x27;: None, &#x27;args&#x27;: [&#x27;&#x27;], &#x27;socket_timeout&#x27;: 5, &#x27;ssl_ca_certificate&#x27;: None, &#x27;scheduler&#x27;: None, &#x27;interfaces&#x27;: None, &#x27;ssl_private_key&#x27;: &#x27;&#x27;, &#x27;gae&#x27;: None, &#x27;password&#x27;: &#x27;&lt;ask&gt;&#x27;, &#x27;request_queue_size&#x27;: 5, &#x27;ssl_certificate&#x27;: &#x27;&#x27;, &#x27;cronjob&#x27;: False, &#x27;numthreads&#x27;: None, &#x27;quiet&#x27;: False, &#x27;import_models&#x27;: False, &#x27;timeout&#x27;: 10, &#x27;plain&#x27;: False, &#x27;nobanner&#x27;: False}&gt;</div></td></tr><tr><td style="font-weight:bold;vertical-align:top;">db_sessions</td><td style="vertical-align:top;">:</td><td><div>set([])</div></td></tr><tr><td style="font-weight:bold;vertical-align:top;">debugging</td><td style="vertical-align:top;">:</td><td><div>False</div></td></tr><tr><td style="font-weight:bold;vertical-align:top;">gluon_parent</td><td style="vertical-align:top;">:</td><td><div>C:\\Users\\Kevin\\web2py</div></td></tr><tr><td style="font-weight:bold;vertical-align:top;">http_accept</td><td style="vertical-align:top;">:</td><td><div>text/html,application/xhtml+xml,application/xml;q=0.9,image/webp,*/*;q=0.8</div></td></tr><tr><td style="font-weight:bold;vertical-align:top;">http_accept_encoding</td><td style="vertical-align:top;">:</td><td><div>gzip, deflate, sdch</div></td></tr><tr><td style="font-weight:bold;vertical-align:top;">http_accept_language</td><td style="vertical-align:top;">:</td><td><div>en-US,en;q=0.8</div></td></tr><tr><td style="font-weight:bold;vertical-align:top;">http_cache_control</td><td style="vertical-align:top;">:</td><td><div>max-age=0</div></td></tr><tr><td style="font-weight:bold;vertical-align:top;">http_connection</td><td style="vertical-align:top;">:</td><td><div>keep-alive</div></td></tr><tr><td style="font-weight:bold;vertical-align:top;">http_cookie</td><td style="vertical-align:top;">:</td><td><div>session_id_admin=127.0.0.1-cbf03b3a-3a3b-4564-95fa-96b77ff7fb2e; session_id_welcome=127.0.0.1-cfb661da-c001-4e9c-ac45-a2e59b5a7cb1; session_id_loveslug=127.0.0.1-b1f5e8a5-f726-494d-b6c7-5330e3a503a1</div></td></tr><tr><td style="font-weight:bold;vertical-align:top;">http_host</td><td style="vertical-align:top;">:</td><td><div>127.0.0.1:8080</div></td></tr><tr><td style="font-weight:bold;vertical-align:top;">http_referer</td><td style="vertical-align:top;">:</td><td><div>http://127.0.0.1:8080/loveslug/default/index/login</div></td></tr><tr><td style="font-weight:bold;vertical-align:top;">http_upgrade_insecure_requests</td><td style="vertical-align:top;">:</td><td><div>1</div></td></tr><tr><td style="font-weight:bold;vertical-align:top;">http_user_agent</td><td style="vertical-align:top;">:</td><td><div>Mozilla/5.0 (Windows NT 6.1; WOW64) AppleWebKit/537.36 (KHTML, like Gecko) Chrome/47.0.2526.80 Safari/537.36</div></td></tr><tr><td style="font-weight:bold;vertical-align:top;">is_jython</td><td style="vertical-align:top;">:</td><td><div>False</div></td></tr><tr><td style="font-weight:bold;vertical-align:top;">is_pypy</td><td style="vertical-align:top;">:</td><td><div>False</div></td></tr><tr><td style="font-weight:bold;vertical-align:top;">is_source</td><td style="vertical-align:top;">:</td><td><div>True</div></td></tr><tr><td style="font-weight:bold;vertical-align:top;">local_hosts</td><td style="vertical-align:top;">:</td><td><div><table><tr><td><div>169.233.9.58</div></td></tr><tr><td><div>Kevin-MSI</div></td></tr><tr><td><div>::ffff:127.0.0.1</div></td></tr><tr><td><div>::1</div></td></tr><tr><td><div>fe80::f97d:14b9:84dd:e770%22</div></td></tr><tr><td><div>fe80::200:5efe:169.233.9.58%24</div></td></tr><tr><td><div>2002:a9e9:93a::a9e9:93a</div></td></tr><tr><td><div>fe80::7494:5eeb:f8b5:f26c%11</div></td></tr><tr><td><div>127.0.0.1</div></td></tr><tr><td><div>192.168.158.1</div></td></tr></table></div></td></tr><tr><td style="font-weight:bold;vertical-align:top;">path_info</td><td style="vertical-align:top;">:</td><td><div>/loveslug/default/profile/2</div></td></tr><tr><td style="font-weight:bold;vertical-align:top;">query_string</td><td style="vertical-align:top;">:</td><td><div></div></td></tr><tr><td style="font-weight:bold;vertical-align:top;">remote_addr</td><td style="vertical-align:top;">:</td><td><div>127.0.0.1</div></td></tr><tr><td style="font-weight:bold;vertical-align:top;">remote_port</td><td style="vertical-align:top;">:</td><td><div>54478</div></td></tr><tr><td style="font-weight:bold;vertical-align:top;">request_method</td><td style="vertical-align:top;">:</td><td><div>GET</div></td></tr><tr><td style="font-weight:bold;vertical-align:top;">request_uri</td><td style="vertical-align:top;">:</td><td><div>/loveslug/default/profile/2</div></td></tr><tr><td style="font-weight:bold;vertical-align:top;">script_name</td><td style="vertical-align:top;">:</td><td><div></div></td></tr><tr><td style="font-weight:bold;vertical-align:top;">server_name</td><td style="vertical-align:top;">:</td><td><div>Kevin-MSI</div></td></tr><tr><td style="font-weight:bold;vertical-align:top;">server_port</td><td style="vertical-align:top;">:</td><td><div>8080</div></td></tr><tr><td style="font-weight:bold;vertical-align:top;">server_protocol</td><td style="vertical-align:top;">:</td><td><div>HTTP/1.1</div></td></tr><tr><td style="font-weight:bold;vertical-align:top;">server_software</td><td style="vertical-align:top;">:</td><td><div>Rocket 1.2.6</div></td></tr><tr><td style="font-weight:bold;vertical-align:top;">web2py_path</td><td style="vertical-align:top;">:</td><td><div>C:\\Users\\Kevin\\web2py</div></td></tr><tr><td style="font-weight:bold;vertical-align:top;">web2py_version</td><td style="vertical-align:top;">:</td><td><div>2.12.3-stable+timestamp.2015.08.19.00.18.03</div></td></tr><tr><td style="font-weight:bold;vertical-align:top;">wsgi.errors</td><td style="vertical-align:top;">:</td><td><div>&lt;open file &#x27;&lt;stderr&gt;&#x27;, mode &#x27;w&#x27; at 0x0000000002252150&gt;</div></td></tr><tr><td style="font-weight:bold;vertical-align:top;">wsgi.file_wrapper</td><td style="vertical-align:top;">:</td><td><div>&lt;class wsgiref.util.FileWrapper at 0x0000000003DA85E8&gt;</div></td></tr><tr><td style="font-weight:bold;vertical-align:top;">wsgi.input</td><td style="vertical-align:top;">:</td><td><div>&lt;socket._fileobject object at 0x000000000A2777C8&gt;</div></td></tr><tr><td style="font-weight:bold;vertical-align:top;">wsgi.multiprocess</td><td style="vertical-align:top;">:</td><td><div>False</div></td></tr><tr><td style="font-weight:bold;vertical-align:top;">wsgi.multithread</td><td style="vertical-align:top;">:</td><td><div>True</div></td></tr><tr><td style="font-weight:bold;vertical-align:top;">wsgi.run_once</td><td style="vertical-align:top;">:</td><td><div>False</div></td></tr><tr><td style="font-weight:bold;vertical-align:top;">wsgi.url_scheme</td><td style="vertical-align:top;">:</td><td><div>http</div></td></tr><tr><td style="font-weight:bold;vertical-align:top;">wsgi.version</td><td style="vertical-align:top;">:</td><td><div><table><tr><td><div>1</div></td></tr><tr><td><div>0</div></td></tr></table></div></td></tr><tr><td style="font-weight:bold;vertical-align:top;">wsgi_errors</td><td style="vertical-align:top;">:</td><td><div>&lt;open file &#x27;&lt;stderr&gt;&#x27;, mode &#x27;w&#x27; at 0x0000000002252150&gt;</div></td></tr><tr><td style="font-weight:bold;vertical-align:top;">wsgi_file_wrapper</td><td style="vertical-align:top;">:</td><td><div>&lt;class wsgiref.util.FileWrapper at 0x0000000003DA85E8&gt;</div></td></tr><tr><td style="font-weight:bold;vertical-align:top;">wsgi_input</td><td style="vertical-align:top;">:</td><td><div>&lt;socket._fileobject object at 0x000000000A2777C8&gt;</div></td></tr><tr><td style="font-weight:bold;vertical-align:top;">wsgi_multiprocess</td><td style="vertical-align:top;">:</td><td><div>False</div></td></tr><tr><td style="font-weight:bold;vertical-align:top;">wsgi_multithread</td><td style="vertical-align:top;">:</td><td><div>True</div></td></tr><tr><td style="font-weight:bold;vertical-align:top;">wsgi_run_once</td><td style="vertical-align:top;">:</td><td><div>False</div></td></tr><tr><td style="font-weight:bold;vertical-align:top;">wsgi_url_scheme</td><td style="vertical-align:top;">:</td><td><div>http</div></td></tr><tr><td style="font-weight:bold;vertical-align:top;">wsgi_version</td><td style="vertical-align:top;">:</td><td><div><table><tr><td><div>1</div></td></tr><tr><td><div>0</div></td></tr></table></div></td></tr></table></div></td></tr><tr><td style="font-weight:bold;vertical-align:top;">extension</td><td style="vertical-align:top;">:</td><td><div>html</div></td></tr><tr><td style="font-weight:bold;vertical-align:top;">folder</td><td style="vertical-align:top;">:</td><td><div>C:\\Users\\Kevin\\web2py\\applications\\loveslug\\</div></td></tr><tr><td style="font-weight:bold;vertical-align:top;">function</td><td style="vertical-align:top;">:</td><td><div>profile</div></td></tr><tr><td style="font-weight:bold;vertical-align:top;">global_settings</td><td style="vertical-align:top;">:</td><td><div><table><tr><td style="font-weight:bold;vertical-align:top;">app_folders</td><td style="vertical-align:top;">:</td><td><div>set([&#x27;C:\\\\Users\\\\Kevin\\\\web2py\\\\applications\\\\welcome\\\\&#x27;, &#x27;C:\\\\Users\\\\Kevin\\\\web2py\\\\applications\\\\loveslug\\\\&#x27;])</div></td></tr><tr><td style="font-weight:bold;vertical-align:top;">applications_parent</td><td style="vertical-align:top;">:</td><td><div>C:\\Users\\Kevin\\web2py</div></td></tr><tr><td style="font-weight:bold;vertical-align:top;">cmd_args</td><td style="vertical-align:top;">:</td><td><div><table></table></div></td></tr><tr><td style="font-weight:bold;vertical-align:top;">cmd_options</td><td style="vertical-align:top;">:</td><td><div>&lt;Values at 0x3e2aac8: {&#x27;verbose&#x27;: False, &#x27;ip&#x27;: &#x27;127.0.0.1&#x27;, &#x27;debuglevel&#x27;: 30, &#x27;with_scheduler&#x27;: False, &#x27;ips&#x27;: [&#x27;169.233.9.58&#x27;, &#x27;fe80::f97d:14b9:84dd:e770%22&#x27;, &#x27;fe80::200:5efe:169.233.9.58%24&#x27;, &#x27;2002:a9e9:93a::a9e9:93a&#x27;, &#x27;fe80::7494:5eeb:f8b5:f26c%11&#x27;, &#x27;192.168.158.1&#x27;], &#x27;shutdown_timeout&#x27;: 5, &#x27;taskbar&#x27;: False, &#x27;with_coverage&#x27;: False, &#x27;scheduler_groups&#x27;: None, &#x27;port&#x27;: 8000, &#x27;maxthreads&#x27;: None, &#x27;softcron&#x27;: False, &#x27;server_name&#x27;: &#x27;Kevin-MSI&#x27;, &#x27;bpython&#x27;: False, &#x27;nogui&#x27;: False, &#x27;pid_filename&#x27;: &#x27;httpserver.pid&#x27;, &#x27;print_errors&#x27;: False, &#x27;extcron&#x27;: False, &#x27;runcron&#x27;: False, &#x27;run_system_tests&#x27;: False, &#x27;test&#x27;: None, &#x27;folder&#x27;: &#x27;C:\\\\Users\\\\Kevin\\\\web2py&#x27;, &#x27;config&#x27;: &#x27;&#x27;, &#x27;minthreads&#x27;: None, &#x27;shell&#x27;: None, &#x27;run&#x27;: &#x27;&#x27;, &#x27;log_filename&#x27;: &#x27;httpserver.log&#x27;, &#x27;profiler_dir&#x27;: None, &#x27;args&#x27;: [&#x27;&#x27;], &#x27;socket_timeout&#x27;: 5, &#x27;ssl_ca_certificate&#x27;: None, &#x27;scheduler&#x27;: None, &#x27;interfaces&#x27;: None, &#x27;ssl_private_key&#x27;: &#x27;&#x27;, &#x27;gae&#x27;: None, &#x27;password&#x27;: &#x27;&lt;ask&gt;&#x27;, &#x27;request_queue_size&#x27;: 5, &#x27;ssl_certificate&#x27;: &#x27;&#x27;, &#x27;cronjob&#x27;: False, &#x27;numthreads&#x27;: None, &#x27;quiet&#x27;: False, &#x27;import_models&#x27;: False, &#x27;timeout&#x27;: 10, &#x27;plain&#x27;: False, &#x27;nobanner&#x27;: False}&gt;</div></td></tr><tr><td style="font-weight:bold;vertical-align:top;">db_sessions</td><td style="vertical-align:top;">:</td><td><div>set([])</div></td></tr><tr><td style="font-weight:bold;vertical-align:top;">debugging</td><td style="vertical-align:top;">:</td><td><div>False</div></td></tr><tr><td style="font-weight:bold;vertical-align:top;">gluon_parent</td><td style="vertical-align:top;">:</td><td><div>C:\\Users\\Kevin\\web2py</div></td></tr><tr><td style="font-weight:bold;vertical-align:top;">is_jython</td><td style="vertical-align:top;">:</td><td><div>False</div></td></tr><tr><td style="font-weight:bold;vertical-align:top;">is_pypy</td><td style="vertical-align:top;">:</td><td><div>False</div></td></tr><tr><td style="font-weight:bold;vertical-align:top;">is_source</td><td style="vertical-align:top;">:</td><td><div>True</div></td></tr><tr><td style="font-weight:bold;vertical-align:top;">local_hosts</td><td style="vertical-align:top;">:</td><td><div><table><tr><td><div>169.233.9.58</div></td></tr><tr><td><div>Kevin-MSI</div></td></tr><tr><td><div>::ffff:127.0.0.1</div></td></tr><tr><td><div>::1</div></td></tr><tr><td><div>fe80::f97d:14b9:84dd:e770%22</div></td></tr><tr><td><div>fe80::200:5efe:169.233.9.58%24</div></td></tr><tr><td><div>2002:a9e9:93a::a9e9:93a</div></td></tr><tr><td><div>fe80::7494:5eeb:f8b5:f26c%11</div></td></tr><tr><td><div>127.0.0.1</div></td></tr><tr><td><div>192.168.158.1</div></td></tr></table></div></td></tr><tr><td style="font-weight:bold;vertical-align:top;">web2py_version</td><td style="vertical-align:top;">:</td><td><div>2.12.3-stable+timestamp.2015.08.19.00.18.03</div></td></tr></table></div></td></tr><tr><td style="font-weight:bold;vertical-align:top;">is_https</td><td style="vertical-align:top;">:</td><td><div>False</div></td></tr><tr><td style="font-weight:bold;vertical-align:top;">is_local</td><td style="vertical-align:top;">:</td><td><div>True</div></td></tr><tr><td style="font-weight:bold;vertical-align:top;">is_restful</td><td style="vertical-align:top;">:</td><td><div>False</div></td></tr><tr><td style="font-weight:bold;vertical-align:top;">is_sheduler</td><td style="vertical-align:top;">:</td><td><div>None</div></td></tr><tr><td style="font-weight:bold;vertical-align:top;">is_shell</td><td style="vertical-align:top;">:</td><td><div>None</div></td></tr><tr><td style="font-weight:bold;vertical-align:top;">now</td><td style="vertical-align:top;">:</td><td><div>datetime.datetime(2015, 12, 9, 20, 43, 6, 237000)</div></td></tr><tr><td style="font-weight:bold;vertical-align:top;">raw_args</td><td style="vertical-align:top;">:</td><td><div>2</div></td></tr><tr><td style="font-weight:bold;vertical-align:top;">raw_extension</td><td style="vertical-align:top;">:</td><td><div>None</div></td></tr><tr><td style="font-weight:bold;vertical-align:top;">url</td><td style="vertical-align:top;">:</td><td><div>/loveslug/default/profile/2</div></td></tr><tr><td style="font-weight:bold;vertical-align:top;">utcnow</td><td style="vertical-align:top;">:</td><td><div>datetime.datetime(2015, 12, 10, 4, 43, 6, 237000)</div></td></tr><tr><td style="font-weight:bold;vertical-align:top;">wsgi</td><td style="vertical-align:top;">:</td><td><div>&lt;gluon.main.LazyWSGI object at 0x000000000AA25E80&gt;</div></td></tr></table></div>'
tRp58
sS'frames'
p59
(lp60
(dp61
S'file'
p62
S'C:\\Users\\Kevin\\web2py\\gluon\\restricted.py'
p63
sS'dump'
p64
(dp65
S'environment'
p66
S"{'A': <class 'gluon.html.A'>, 'ANY_OF': <class 'gluon.validators.ANY_OF'>, 'ASSIGNJS': <function ASSIGNJS>, 'AppConfig': <function AppConfig>, 'Auth': <class 'gluon.tools.Auth'>, 'B': <class 'gluon.html.B'>, 'BEAUTIFY': <class 'gluon.html.BEAUTIFY'>, 'BODY': <class 'gluon.html.BODY'>, 'BR': <class 'gluon.html.BR'>, 'BUTTON': <class 'gluon.html.BUTTON'>, ...}"
p67
sS'ccode'
p68
S'<code object <module> at 000000000A85EDB0, file ...ons\\loveslug\\views\\default/profile.html", line 1>'
p69
ssS'lnum'
p70
I227
sS'lines'
p71
(dp72
I224
S'            ccode = code'
p73
sI225
S'        else:'
p74
sI226
S'            ccode = compile2(code, layer)'
p75
sI227
S'        exec ccode in environment'
p76
sI228
S'    except HTTP:'
p77
sI229
S'        raise'
p78
sI230
S'    except RestrictedError:'
p79
sI231
S'        # do not encapsulate (obfuscate) the original RestrictedError'
p80
sI222
S'    try:'
p81
sI223
S'        if isinstance(code, types.CodeType):'
p82
ssS'call'
p83
S'(code=r"left_sidebar_enabled,right_sidebar_enabled=False...ript>\\r\\n  </body>\\r\\n</html>\\r\\n\', escape=False)", environment={\'A\': <class \'gluon.html.A\'>, \'ANY_OF\': <class \'gluon.validators.ANY_OF\'>, \'ASSIGNJS\': <function ASSIGNJS>, \'AppConfig\': <function AppConfig>, \'Auth\': <class \'gluon.tools.Auth\'>, \'B\': <class \'gluon.html.B\'>, \'BEAUTIFY\': <class \'gluon.html.BEAUTIFY\'>, \'BODY\': <class \'gluon.html.BODY\'>, \'BR\': <class \'gluon.html.BR\'>, \'BUTTON\': <class \'gluon.html.BUTTON\'>, ...}, layer=r\'C:\\Users\\Kevin\\web2py\\applications\\loveslug\\views\\default/profile.html\')'
p84
sS'func'
p85
S'restricted'
p86
sa(dp87
g62
S'C:\\Users\\Kevin\\web2py\\applications\\loveslug\\views\\default\\profile.html'
p88
sg64
(dp89
S'vote'
p90
S'undefined'
p91
sS'URL'
p92
S'<function URL>'
p93
sS'the'
p94
g91
sS'call'
p95
g91
sS'AJAX'
p96
g91
ssg70
I127
sg71
(dp97
I128
S'        response.write(\'">\\r\\n                  <input class="form-control rating" value="\', escape=False)'
p98
sI129
S"        response.write(users['thumbs'])"
p99
sI130
S'        response.write(\'" style="display:none"/>\\r\\n                    <span class="thumbs-up">\\r\\n                      <i class="fa fa-thumbs-o-up"></i>\\r\\n                    </span>\\r\\n                    <span class="thumbs-down">\\r\\n                      <i class="fa fa-thumbs-o-down"></i>\\r\\n                    </span>\\r\\n                </span>\\r\\n              \', escape=False)'
p100
sI131
S'        pass'
p101
sI132
S"    response.write('\\r\\n            ', escape=False)"
p102
sI133
S'    pass'
p103
sI134
S"response.write('\\r\\n            ', escape=False)"
p104
sI135
S'pass'
p105
sI136
S'response.write(\'\\r\\n          </table>\\r\\n          <br><br>\\r\\n          <div id="message-box" style="width:75%"></div>\\r\\n        </center>\\r\\n      </div>\\r\\n      <div class="col-md-4">\\r\\n      </div>\\r\\n    </div>\\r\\n  </div>\\r\\n</body>\\r\\n\\r\\n\\r\\n\\r\\n\\r\\n<script>\\r\\njQuery(\\\'span.thumb-rating\\\').each(function(){\\r\\n  // For each thumb rating span, let\\\'s find some key elements.\\r\\n  // \\\'this\\\' can vary in javascript, so let\\\'s have the span.thumb-rating on which\\r\\n  // this function is called be stored in a variable called \\\'self\\\'.\\r\\n  var self = jQuery(this);\\r\\n  // First, the input, so using val() we can know whether the thumb is up (\\\'u\\\'),\\r\\n  // down (\\\'d\\\'), or not defined (\\\'\\\', or none of the above values).\\r\\n  var input_el = self.find("input");\\r\\n  // And the thumbs up and down.\\r\\n  var thumbs_up = self.find("span.thumbs-up i.fa");\\r\\n  var thumbs_down = self.find("span.thumbs-down i.fa");\\r\\n  var span_up = self.find("span.thumbs-up");\\r\\n  var span_down = self.find("span.thumbs-down");\\r\\n  // And the picture id.\\r\\n  var picid = self.attr(\\\'data-picid\\\');\\r\\n\\r\\n  // To cause a thumbs_up to appear filled, you add to it the class fa-thumbs-up;\\r\\n  // to cause it to appear unfilled, you add to the i.fa element the class fa-thumbs-o-up.\\r\\n  // For instance: thumbs_up.removeClass("fa-thumbs-o-up").addClass("fa-thumbs-up")\\r\\n  // would fill it.\\r\\n\\r\\n  var do_thumbs_up = function() {\\r\\n    // Write here a function that fills the thumbs up, and unfills the thumbs down.\\r\\n      thumbs_up.removeClass("fa-thumbs-o-up").addClass("fa-thumbs-up");\\r\\n      thumbs_down.removeClass("fa-thumbs-down").addClass("fa-thumbs-o-up");\\r\\n  };\\r\\n  var do_thumbs_down = function() {\\r\\n    // Write here a function that fills the thumbs down, and unfills the thumbs up.\\r\\n\\r\\n      thumbs_down.removeClass("fa-thumbs-o-up").addClass("fa-thumbs-down");\\r\\n      thumbs_up.removeClass("fa-thumbs-up").addClass("fa-thumbs-o-up");\\r\\n\\r\\n  };\\r\\n  var do_no_thumbs = function() {\\r\\n    // Write here a function that unfills both thumbs.\\r\\n      thumbs_up.removeClass("fa-thumbs-up").addClass("fa-thumbs-o-up");\\r\\n      thumbs_down.removeClass("fa-thumbs-down").addClass("fa-thumbs-o-up");\\r\\n\\r\\n  };\\r\\n\\r\\n  // Using the above functions, write a function that displays the correct state of the\\r\\n  // thumbs up and down according to the value of the input.\\r\\n  var show_thumbs = function() {\\r\\n    // Write code here.\\r\\n\\r\\n    if (input_el.val() == \\\'u\\\') {\\r\\n        do_thumbs_up();\\r\\n    }else if(input_el.val() == \\\'d\\\'){\\r\\n        do_thumbs_down();\\r\\n    } else{\\r\\n        do_no_thumbs();\\r\\n    }\\r\\n  };\\r\\n\\r\\n  function send_thumbs(thumbs) {\\r\\n    // This function sends to the server the thumb status, which should be\\r\\n    // one of \\\'u\\\', \\\'d\\\', or \\\'\\\'.  Call it from the click handlers.\\r\\n    jQuery.post(\\r\\n            \\\'\', escape=False)'
p106
sI137
S"response.write(URL('vote', user_signature=True))"
p107
sI118
S"response.write('</td></tr>\\r\\n            <tr><td>Major:</td><td>', escape=False)"
p108
sI119
S'response.write(thisprofile[-1].major)'
p109
sI120
S"response.write('</td></tr>\\r\\n            <tr><td>Location:</td><td>', escape=False)"
p110
sI121
S'response.write(thisprofile[-1].college)'
p111
sI122
S"response.write('</td></tr>\\r\\n            ', escape=False)"
p112
sI123
S'for users in thumb_profile[-1]:'
p113
sI124
S"    response.write('\\r\\n              ', escape=False)"
p114
sI125
S'    if auth.user:'
p115
sI126
S'        response.write(\'\\r\\n                <span class="thumb-rating" data-picid="\', escape=False)'
p116
sI127
S"        response.write(users['profile_id'])"
p117
ssg83
S'()'
p118
sg85
S'<module>'
p119
sasS'pyver'
p120
S'Python 2.7.10: C:\\Users\\Kevin\\Anaconda\\python.exe (prefix: C:\\Users\\Kevin\\Anaconda)'
p121
sS'session'
p122
g57
(S's\xf6\t\x00\x00<div><table><tr><td style="font-weight:bold;vertical-align:top;">auth</td><td style="vertical-align:top;">:</td><td><div><table><tr><td style="font-weight:bold;vertical-align:top;">expiration</td><td style="vertical-align:top;">:</td><td><div>3600</div></td></tr><tr><td style="font-weight:bold;vertical-align:top;">hmac_key</td><td style="vertical-align:top;">:</td><td><div>4e6c7b47-760c-4749-837b-158603370798</div></td></tr><tr><td style="font-weight:bold;vertical-align:top;">last_visit</td><td style="vertical-align:top;">:</td><td><div>datetime.datetime(2015, 12, 9, 20, 42, 1, 785000)</div></td></tr><tr><td style="font-weight:bold;vertical-align:top;">user</td><td style="vertical-align:top;">:</td><td><div><table><tr><td style="font-weight:bold;vertical-align:top;">Gender</td><td style="vertical-align:top;">:</td><td><div>Male</div></td></tr><tr><td style="font-weight:bold;vertical-align:top;">Seeking_a</td><td style="vertical-align:top;">:</td><td><div>Female</div></td></tr><tr><td style="font-weight:bold;vertical-align:top;">birthday</td><td style="vertical-align:top;">:</td><td><div>datetime.date(2015, 12, 1)</div></td></tr><tr><td style="font-weight:bold;vertical-align:top;">email</td><td style="vertical-align:top;">:</td><td><div>k@ucsc.edu</div></td></tr><tr><td style="font-weight:bold;vertical-align:top;">first_name</td><td style="vertical-align:top;">:</td><td><div>k</div></td></tr><tr><td style="font-weight:bold;vertical-align:top;">id</td><td style="vertical-align:top;">:</td><td><div>2L</div></td></tr><tr><td style="font-weight:bold;vertical-align:top;">last_name</td><td style="vertical-align:top;">:</td><td><div>y</div></td></tr><tr><td style="font-weight:bold;vertical-align:top;">registration_id</td><td style="vertical-align:top;">:</td><td><div></div></td></tr><tr><td style="font-weight:bold;vertical-align:top;">registration_key</td><td style="vertical-align:top;">:</td><td><div></div></td></tr><tr><td style="font-weight:bold;vertical-align:top;">reset_password_key</td><td style="vertical-align:top;">:</td><td><div></div></td></tr></table></div></td></tr><tr><td style="font-weight:bold;vertical-align:top;">user_groups</td><td style="vertical-align:top;">:</td><td><div><table><tr><td style="font-weight:bold;vertical-align:top;">21</td><td style="vertical-align:top;">:</td><td><div>user_2</div></td></tr></table></div></td></tr></table></div></td></tr><tr><td style="font-weight:bold;vertical-align:top;">flash</td><td style="vertical-align:top;">:</td><td><div>None</div></td></tr></table></div>'
tRp123
sS'etype'
p124
S"<type 'exceptions.TypeError'>"
p125
sS'date'
p126
S'Wed Dec 09 20:43:06 2015'
p127
sS'response'
p128
g57
(S's\x9d@\x00\x00<div><table><tr><td style="font-weight:bold;vertical-align:top;">body</td><td style="vertical-align:top;">:</td><td><div>&lt;cStringIO.StringO object at 0x000000000A684A08&gt;</div></td></tr><tr><td style="font-weight:bold;vertical-align:top;">cookies</td><td style="vertical-align:top;">:</td><td><div><table><tr><td style="font-weight:bold;vertical-align:top;">session_id_loveslug</td><td style="vertical-align:top;">:</td><td><div>127.0.0.1-b1f5e8a5-f726-494d-b6c7-5330e3a503a1<table><tr><td style="font-weight:bold;vertical-align:top;">comment</td><td style="vertical-align:top;">:</td><td><div></div></td></tr><tr><td style="font-weight:bold;vertical-align:top;">domain</td><td style="vertical-align:top;">:</td><td><div></div></td></tr><tr><td style="font-weight:bold;vertical-align:top;">expires</td><td style="vertical-align:top;">:</td><td><div></div></td></tr><tr><td style="font-weight:bold;vertical-align:top;">httponly</td><td style="vertical-align:top;">:</td><td><div></div></td></tr><tr><td style="font-weight:bold;vertical-align:top;">max-age</td><td style="vertical-align:top;">:</td><td><div></div></td></tr><tr><td style="font-weight:bold;vertical-align:top;">path</td><td style="vertical-align:top;">:</td><td><div>/</div></td></tr><tr><td style="font-weight:bold;vertical-align:top;">secure</td><td style="vertical-align:top;">:</td><td><div></div></td></tr><tr><td style="font-weight:bold;vertical-align:top;">version</td><td style="vertical-align:top;">:</td><td><div></div></td></tr></table></div></td></tr></table></div></td></tr><tr><td style="font-weight:bold;vertical-align:top;">delimiters</td><td style="vertical-align:top;">:</td><td><div><table><tr><td><div>{{</div></td></tr><tr><td><div>}}</div></td></tr></table></div></td></tr><tr><td style="font-weight:bold;vertical-align:top;">files</td><td style="vertical-align:top;">:</td><td><div><table><tr><td><div>/loveslug/static/js/jquery.js</div></td></tr><tr><td><div>/loveslug/static/css/calendar.css</div></td></tr><tr><td><div>/loveslug/static/js/calendar.js</div></td></tr><tr><td><div>/loveslug/static/js/web2py.js</div></td></tr></table></div></td></tr><tr><td style="font-weight:bold;vertical-align:top;">flash</td><td style="vertical-align:top;">:</td><td><div></div></td></tr><tr><td style="font-weight:bold;vertical-align:top;">form_label_separator</td><td style="vertical-align:top;">:</td><td><div></div></td></tr><tr><td style="font-weight:bold;vertical-align:top;">formstyle</td><td style="vertical-align:top;">:</td><td><div>bootstrap3_inline</div></td></tr><tr><td style="font-weight:bold;vertical-align:top;">generic_patterns</td><td style="vertical-align:top;">:</td><td><div><table><tr><td><div>*</div></td></tr></table></div></td></tr><tr><td style="font-weight:bold;vertical-align:top;">google_analytics_id</td><td style="vertical-align:top;">:</td><td><div>None</div></td></tr><tr><td style="font-weight:bold;vertical-align:top;">headers</td><td style="vertical-align:top;">:</td><td><div><table><tr><td style="font-weight:bold;vertical-align:top;">X-Powered-By</td><td style="vertical-align:top;">:</td><td><div>web2py</div></td></tr></table></div></td></tr><tr><td style="font-weight:bold;vertical-align:top;">logo</td><td style="vertical-align:top;">:</td><td><div><a class="navbar-brand" href="http://www.web2py.com/" id="web2py-logo"><b>web<span>2</span>py</b>&trade;&nbsp;</a></div></td></tr><tr><td style="font-weight:bold;vertical-align:top;">menu</td><td style="vertical-align:top;">:</td><td><div><table><tr><td><div><table><tr><td><div>Home</div></td></tr><tr><td><div>False</div></td></tr><tr><td><div>/loveslug/default/index</div></td></tr><tr><td><div><table></table></div></td></tr></table></div></td></tr><tr><td><div><table><tr><td><div>My Sites</div></td></tr><tr><td><div>False</div></td></tr><tr><td><div>/admin/default/site</div></td></tr></table></div></td></tr><tr><td><div><table><tr><td><div>This App</div></td></tr><tr><td><div>False</div></td></tr><tr><td><div>#</div></td></tr><tr><td><div><table><tr><td><div><table><tr><td><div>Design</div></td></tr><tr><td><div>False</div></td></tr><tr><td><div>/admin/default/design/loveslug</div></td></tr></table></div></td></tr><tr><td><div><li class="divider"></li></div></td></tr><tr><td><div><table><tr><td><div>Controller</div></td></tr><tr><td><div>False</div></td></tr><tr><td><div>/admin/default/edit/loveslug/controllers/default.py</div></td></tr></table></div></td></tr><tr><td><div><table><tr><td><div>View</div></td></tr><tr><td><div>False</div></td></tr><tr><td><div>/admin/default/edit/loveslug/views/default/profile.html</div></td></tr></table></div></td></tr><tr><td><div><table><tr><td><div>DB Model</div></td></tr><tr><td><div>False</div></td></tr><tr><td><div>/admin/default/edit/loveslug/models/db.py</div></td></tr></table></div></td></tr><tr><td><div><table><tr><td><div>Menu Model</div></td></tr><tr><td><div>False</div></td></tr><tr><td><div>/admin/default/edit/loveslug/models/menu.py</div></td></tr></table></div></td></tr><tr><td><div><table><tr><td><div>Config.ini</div></td></tr><tr><td><div>False</div></td></tr><tr><td><div>/admin/default/edit/loveslug/private/appconfig.ini</div></td></tr></table></div></td></tr><tr><td><div><table><tr><td><div>Layout</div></td></tr><tr><td><div>False</div></td></tr><tr><td><div>/admin/default/edit/loveslug/views/layout.html</div></td></tr></table></div></td></tr><tr><td><div><table><tr><td><div>Stylesheet</div></td></tr><tr><td><div>False</div></td></tr><tr><td><div>/admin/default/edit/loveslug/static/css/web2py-bootstrap3.css</div></td></tr></table></div></td></tr><tr><td><div><table><tr><td><div>Database</div></td></tr><tr><td><div>False</div></td></tr><tr><td><div>/loveslug/appadmin/index</div></td></tr></table></div></td></tr><tr><td><div><table><tr><td><div>Errors</div></td></tr><tr><td><div>False</div></td></tr><tr><td><div>/admin/default/errors/loveslug</div></td></tr></table></div></td></tr><tr><td><div><table><tr><td><div>About</div></td></tr><tr><td><div>False</div></td></tr><tr><td><div>/admin/default/about/loveslug</div></td></tr></table></div></td></tr></table></div></td></tr></table></div></td></tr><tr><td><div><table><tr><td><div>web2py.com</div></td></tr><tr><td><div>False</div></td></tr><tr><td><div>#</div></td></tr><tr><td><div><table><tr><td><div><table><tr><td><div>Download</div></td></tr><tr><td><div>False</div></td></tr><tr><td><div>http://www.web2py.com/examples/default/download</div></td></tr></table></div></td></tr><tr><td><div><table><tr><td><div>Support</div></td></tr><tr><td><div>False</div></td></tr><tr><td><div>http://www.web2py.com/examples/default/support</div></td></tr></table></div></td></tr><tr><td><div><table><tr><td><div>Demo</div></td></tr><tr><td><div>False</div></td></tr><tr><td><div>http://web2py.com/demo_admin</div></td></tr></table></div></td></tr><tr><td><div><table><tr><td><div>Quick Examples</div></td></tr><tr><td><div>False</div></td></tr><tr><td><div>http://web2py.com/examples/default/examples</div></td></tr></table></div></td></tr><tr><td><div><table><tr><td><div>FAQ</div></td></tr><tr><td><div>False</div></td></tr><tr><td><div>http://web2py.com/AlterEgo</div></td></tr></table></div></td></tr><tr><td><div><table><tr><td><div>Videos</div></td></tr><tr><td><div>False</div></td></tr><tr><td><div>http://www.web2py.com/examples/default/videos/</div></td></tr></table></div></td></tr><tr><td><div><table><tr><td><div>Free Applications</div></td></tr><tr><td><div>False</div></td></tr><tr><td><div>http://web2py.com/appliances</div></td></tr></table></div></td></tr><tr><td><div><table><tr><td><div>Plugins</div></td></tr><tr><td><div>False</div></td></tr><tr><td><div>http://web2py.com/plugins</div></td></tr></table></div></td></tr><tr><td><div><table><tr><td><div>Recipes</div></td></tr><tr><td><div>False</div></td></tr><tr><td><div>http://web2pyslices.com/</div></td></tr></table></div></td></tr></table></div></td></tr></table></div></td></tr><tr><td><div><table><tr><td><div>Documentation</div></td></tr><tr><td><div>False</div></td></tr><tr><td><div>#</div></td></tr><tr><td><div><table><tr><td><div><table><tr><td><div>Online book</div></td></tr><tr><td><div>False</div></td></tr><tr><td><div>http://www.web2py.com/book</div></td></tr></table></div></td></tr><tr><td><div><li class="divider"></li></div></td></tr><tr><td><div><table><tr><td><div>Preface</div></td></tr><tr><td><div>False</div></td></tr><tr><td><div>http://www.web2py.com/book/default/chapter/00</div></td></tr></table></div></td></tr><tr><td><div><table><tr><td><div>Introduction</div></td></tr><tr><td><div>False</div></td></tr><tr><td><div>http://www.web2py.com/book/default/chapter/01</div></td></tr></table></div></td></tr><tr><td><div><table><tr><td><div>Python</div></td></tr><tr><td><div>False</div></td></tr><tr><td><div>http://www.web2py.com/book/default/chapter/02</div></td></tr></table></div></td></tr><tr><td><div><table><tr><td><div>Overview</div></td></tr><tr><td><div>False</div></td></tr><tr><td><div>http://www.web2py.com/book/default/chapter/03</div></td></tr></table></div></td></tr><tr><td><div><table><tr><td><div>The Core</div></td></tr><tr><td><div>False</div></td></tr><tr><td><div>http://www.web2py.com/book/default/chapter/04</div></td></tr></table></div></td></tr><tr><td><div><table><tr><td><div>The Views</div></td></tr><tr><td><div>False</div></td></tr><tr><td><div>http://www.web2py.com/book/default/chapter/05</div></td></tr></table></div></td></tr><tr><td><div><table><tr><td><div>Database</div></td></tr><tr><td><div>False</div></td></tr><tr><td><div>http://www.web2py.com/book/default/chapter/06</div></td></tr></table></div></td></tr><tr><td><div><table><tr><td><div>Forms and Validators</div></td></tr><tr><td><div>False</div></td></tr><tr><td><div>http://www.web2py.com/book/default/chapter/07</div></td></tr></table></div></td></tr><tr><td><div><table><tr><td><div>Email and SMS</div></td></tr><tr><td><div>False</div></td></tr><tr><td><div>http://www.web2py.com/book/default/chapter/08</div></td></tr></table></div></td></tr><tr><td><div><table><tr><td><div>Access Control</div></td></tr><tr><td><div>False</div></td></tr><tr><td><div>http://www.web2py.com/book/default/chapter/09</div></td></tr></table></div></td></tr><tr><td><div><table><tr><td><div>Services</div></td></tr><tr><td><div>False</div></td></tr><tr><td><div>http://www.web2py.com/book/default/chapter/10</div></td></tr></table></div></td></tr><tr><td><div><table><tr><td><div>Ajax Recipes</div></td></tr><tr><td><div>False</div></td></tr><tr><td><div>http://www.web2py.com/book/default/chapter/11</div></td></tr></table></div></td></tr><tr><td><div><table><tr><td><div>Components and Plugins</div></td></tr><tr><td><div>False</div></td></tr><tr><td><div>http://www.web2py.com/book/default/chapter/12</div></td></tr></table></div></td></tr><tr><td><div><table><tr><td><div>Deployment Recipes</div></td></tr><tr><td><div>False</div></td></tr><tr><td><div>http://www.web2py.com/book/default/chapter/13</div></td></tr></table></div></td></tr><tr><td><div><table><tr><td><div>Other Recipes</div></td></tr><tr><td><div>False</div></td></tr><tr><td><div>http://www.web2py.com/book/default/chapter/14</div></td></tr></table></div></td></tr><tr><td><div><table><tr><td><div>Helping web2py</div></td></tr><tr><td><div>False</div></td></tr><tr><td><div>http://www.web2py.com/book/default/chapter/15</div></td></tr></table></div></td></tr><tr><td><div><table><tr><td><div>Buy web2py\'s book</div></td></tr><tr><td><div>False</div></td></tr><tr><td><div>http://stores.lulu.com/web2py</div></td></tr></table></div></td></tr></table></div></td></tr></table></div></td></tr><tr><td><div><table><tr><td><div>Community</div></td></tr><tr><td><div>False</div></td></tr><tr><td><div>None</div></td></tr><tr><td><div><table><tr><td><div><table><tr><td><div>Groups</div></td></tr><tr><td><div>False</div></td></tr><tr><td><div>http://www.web2py.com/examples/default/usergroups</div></td></tr></table></div></td></tr><tr><td><div><table><tr><td><div>Twitter</div></td></tr><tr><td><div>False</div></td></tr><tr><td><div>http://twitter.com/web2py</div></td></tr></table></div></td></tr><tr><td><div><table><tr><td><div>Live Chat</div></td></tr><tr><td><div>False</div></td></tr><tr><td><div>http://webchat.freenode.net/?channels=web2py</div></td></tr></table></div></td></tr></table></div></td></tr></table></div></td></tr></table></div></td></tr><tr><td style="font-weight:bold;vertical-align:top;">meta</td><td style="vertical-align:top;">:</td><td><div><table><tr><td style="font-weight:bold;vertical-align:top;">author</td><td style="vertical-align:top;">:</td><td><div>Your Name &lt;you@example.com&gt;</div></td></tr><tr><td style="font-weight:bold;vertical-align:top;">description</td><td style="vertical-align:top;">:</td><td><div>a cool new app</div></td></tr><tr><td style="font-weight:bold;vertical-align:top;">generator</td><td style="vertical-align:top;">:</td><td><div>Web2py Web Framework</div></td></tr><tr><td style="font-weight:bold;vertical-align:top;">keywords</td><td style="vertical-align:top;">:</td><td><div>web2py, python, framework</div></td></tr></table></div></td></tr><tr><td style="font-weight:bold;vertical-align:top;">models_to_run</td><td style="vertical-align:top;">:</td><td><div><table><tr><td><div>^\\w+\\.py$</div></td></tr><tr><td><div>^default/\\w+\\.py$</div></td></tr><tr><td><div>^default/profile/\\w+\\.py$</div></td></tr></table></div></td></tr><tr><td style="font-weight:bold;vertical-align:top;">postprocessing</td><td style="vertical-align:top;">:</td><td><div><table></table></div></td></tr><tr><td style="font-weight:bold;vertical-align:top;">session_client</td><td style="vertical-align:top;">:</td><td><div>127.0.0.1</div></td></tr><tr><td style="font-weight:bold;vertical-align:top;">session_cookie_compression_level</td><td style="vertical-align:top;">:</td><td><div>None</div></td></tr><tr><td style="font-weight:bold;vertical-align:top;">session_cookie_expires</td><td style="vertical-align:top;">:</td><td><div>None</div></td></tr><tr><td style="font-weight:bold;vertical-align:top;">session_cookie_key</td><td style="vertical-align:top;">:</td><td><div>None</div></td></tr><tr><td style="font-weight:bold;vertical-align:top;">session_data_name</td><td style="vertical-align:top;">:</td><td><div>session_data_loveslug</div></td></tr><tr><td style="font-weight:bold;vertical-align:top;">session_file</td><td style="vertical-align:top;">:</td><td><div>&lt;open file &#x27;C:\\\\Users\\\\Kevin\\\\web2py\\\\applications\\\\loveslug\\\\sessions\\\\1c5\\\\01d\\\\127.0.0.1-b1f5e8a5-f726-494d-b6c7-5330e3a503a1&#x27;, mode &#x27;rb+&#x27; at 0x0000000004797300&gt;</div></td></tr><tr><td style="font-weight:bold;vertical-align:top;">session_filename</td><td style="vertical-align:top;">:</td><td><div>C:\\Users\\Kevin\\web2py\\applications\\loveslug\\sessions\\127.0.0.1-b1f5e8a5-f726-494d-b6c7-5330e3a503a1</div></td></tr><tr><td style="font-weight:bold;vertical-align:top;">session_hash</td><td style="vertical-align:top;">:</td><td><div>839d3810f90f50c34dd933a2d3e00dd3</div></td></tr><tr><td style="font-weight:bold;vertical-align:top;">session_id</td><td style="vertical-align:top;">:</td><td><div>127.0.0.1-b1f5e8a5-f726-494d-b6c7-5330e3a503a1</div></td></tr><tr><td style="font-weight:bold;vertical-align:top;">session_id_name</td><td style="vertical-align:top;">:</td><td><div>session_id_loveslug</div></td></tr><tr><td style="font-weight:bold;vertical-align:top;">session_locked</td><td style="vertical-align:top;">:</td><td><div>True</div></td></tr><tr><td style="font-weight:bold;vertical-align:top;">session_masterapp</td><td style="vertical-align:top;">:</td><td><div>loveslug</div></td></tr><tr><td style="font-weight:bold;vertical-align:top;">session_new</td><td style="vertical-align:top;">:</td><td><div>False</div></td></tr><tr><td style="font-weight:bold;vertical-align:top;">session_storage_type</td><td style="vertical-align:top;">:</td><td><div>file</div></td></tr><tr><td style="font-weight:bold;vertical-align:top;">status</td><td style="vertical-align:top;">:</td><td><div>200</div></td></tr><tr><td style="font-weight:bold;vertical-align:top;">subtitle</td><td style="vertical-align:top;">:</td><td><div></div></td></tr><tr><td style="font-weight:bold;vertical-align:top;">title</td><td style="vertical-align:top;">:</td><td><div>Loveslug</div></td></tr><tr><td style="font-weight:bold;vertical-align:top;">view</td><td style="vertical-align:top;">:</td><td><div>default/profile.html</div></td></tr></table></div>'
tRp129
sS'locals'
p130
(dp131
S'Service'
p132
S"<class 'gluon.tools.Service'>"
p133
sS'FORMAT'
p134
S"'%(asctime)s %(levelname)s %(process)s %(thread)s %(funcName)s():%(lineno)d %(message)s'"
p135
sS'OBJECT'
p136
S"<class 'gluon.html.OBJECT'>"
p137
sS'SQLDB'
p138
S"<class 'pydal.base.DAL'>"
p139
sg122
S"<Storage {'_formkey[register]': ['76c8232e-76a6-...e866a', '4d37b890-2b55-4d8f-8dfc-7106521233dd']}>"
p140
sS'LINK'
p141
S"<class 'gluon.html.LINK'>"
p142
sS'BR'
p143
S"<class 'gluon.html.BR'>"
p144
sS'local_import'
p145
S'<function <lambda>>'
p146
sS'OPTGROUP'
p147
S"<class 'gluon.html.OPTGROUP'>"
p148
sS'__package__'
p149
S'None'
p150
sS'PRE'
p151
S"<class 'gluon.html.PRE'>"
p152
sS'IS_INT_IN_RANGE'
p153
S"<class 'gluon.validators.IS_INT_IN_RANGE'>"
p154
sS'left_sidebar_enabled'
p155
S'False'
p156
sS'IS_LOWER'
p157
S"<class 'gluon.validators.IS_LOWER'>"
p158
sS'IS_STRONG'
p159
S"<class 'gluon.validators.IS_STRONG'>"
p160
sS'cache'
p161
S'<gluon.cache.Cache object>'
p162
sS'IS_IN_DB'
p163
S"<class 'gluon.validators.IS_IN_DB'>"
p164
sS'TAG'
p165
S'<gluon.html.__TAG__ object>'
p166
sS'SQLField'
p167
S"<class 'pydal.objects.Field'>"
p168
sS'mail'
p169
S'<gluon.tools.Mail object>'
p170
sS'logger'
p171
S'<logging.Logger object>'
p172
sS'BODY'
p173
S"<class 'gluon.html.BODY'>"
p174
sS'IS_DATE_IN_RANGE'
p175
S"<class 'gluon.validators.IS_DATE_IN_RANGE'>"
p176
sS'IFRAME'
p177
S"<class 'gluon.html.IFRAME'>"
p178
sS'URL'
p179
S'<function URL>'
p180
sS'__file__'
p181
S"r'C:\\Users\\Kevin\\web2py\\applications\\loveslug\\views\\default/profile.html'"
p182
sS'db'
p183
S'<DAL uri="sqlite://storage.sqlite">'
p184
sS'auth'
p185
S'<gluon.tools.Auth object>'
p186
sS'P'
S"<class 'gluon.html.P'>"
p187
sS'TFOOT'
p188
S"<class 'gluon.html.TFOOT'>"
p189
sS'XHTML'
p190
S"<class 'gluon.html.XHTML'>"
p191
sS'ON'
p192
S'True'
p193
sS'OL'
p194
S"<class 'gluon.html.OL'>"
p195
sS'TEXTAREA'
p196
S"<class 'gluon.html.TEXTAREA'>"
p197
sS'MENU'
p198
S"<class 'gluon.html.MENU'>"
p199
sS'IS_IMAGE'
p200
S"<class 'gluon.validators.IS_IMAGE'>"
p201
sS'EM'
p202
S"<class 'gluon.html.EM'>"
p203
sS'CODE'
p204
S"<class 'gluon.html.CODE'>"
p205
sS'HTTP'
p206
S"<class 'gluon.http.HTTP'>"
p207
sS'HR'
p208
S"<class 'gluon.html.HR'>"
p209
sS'IS_DATETIME'
p210
S"<class 'gluon.validators.IS_DATETIME'>"
p211
sS'STYLE'
p212
S"<class 'gluon.html.STYLE'>"
p213
sS'LABEL'
p214
S"<class 'gluon.html.LABEL'>"
p215
sS'CLEANUP'
p216
S"<class 'gluon.validators.CLEANUP'>"
p217
sS'plugins'
p218
S'<gluon.tools.PluginManager object>'
p219
sS'SELECT'
p220
S"<class 'gluon.html.SELECT'>"
p221
sS'CENTER'
p222
S"<class 'gluon.html.CENTER'>"
p223
sS'Auth'
p224
S"<class 'gluon.tools.Auth'>"
p225
sS'DEVELOPMENT_MENU'
p226
g193
sS'__builtins__'
p227
S"{'ArithmeticError': <type 'exceptions.ArithmeticError'>, 'AssertionError': <type 'exceptions.AssertionError'>, 'AttributeError': <type 'exceptions.AttributeError'>, 'BaseException': <type 'exceptions.BaseException'>, 'BufferError': <type 'exceptions.BufferError'>, 'BytesWarning': <type 'exceptions.BytesWarning'>, 'DeprecationWarning': <type 'exceptions.DeprecationWarning'>, 'EOFError': <type 'exceptions.EOFError'>, 'Ellipsis': Ellipsis, 'EnvironmentError': <type 'exceptions.EnvironmentError'>, ...}"
p228
sS'HTML'
p229
S"<class 'gluon.html.HTML'>"
p230
sS'SQLFORM'
p231
S"<class 'gluon.sqlhtml.SQLFORM'>"
p232
sS'LOAD'
p233
S'<function LOAD>'
p234
sS'redirect'
p235
S'<function redirect>'
p236
sS'FIELDSET'
p237
S"<class 'gluon.html.FIELDSET'>"
p238
sS'IS_EQUAL_TO'
p239
S"<class 'gluon.validators.IS_EQUAL_TO'>"
p240
sS'embed64'
p241
S'<function embed64>'
p242
sS'IS_LIST_OF'
p243
S"<class 'gluon.validators.IS_LIST_OF'>"
p244
sS'INPUT'
p245
S"<class 'gluon.html.INPUT'>"
p246
sS'EMBED'
p247
S"<class 'gluon.html.EMBED'>"
p248
sS'_'
S'<function _>'
p249
sS'logging'
p250
S"<module 'logging' from 'C:\\Users\\Kevin\\Anaconda\\lib\\logging\\__init__.pyc'>"
p251
sS'myconf'
p252
S"{'forms': {'formstyle': 'bootstrap3_inline', 'se...'you@gmail.com', 'server': 'smtp.gmail.com:587'}}"
p253
sS'H2'
p254
S"<class 'gluon.html.H2'>"
p255
sS'H3'
p256
S"<class 'gluon.html.H3'>"
p257
sS'AppConfig'
p258
S'<function AppConfig>'
p259
sS'H1'
p260
S"<class 'gluon.html.H1'>"
p261
sS'H6'
p262
S"<class 'gluon.html.H6'>"
p263
sS'H4'
p264
S"<class 'gluon.html.H4'>"
p265
sS'H5'
p266
S"<class 'gluon.html.H5'>"
p267
sS'UL'
p268
S"<class 'gluon.html.UL'>"
p269
sS'IS_UPPER'
p270
S"<class 'gluon.validators.IS_UPPER'>"
p271
sS'xmlescape'
p272
S'<function xmlescape>'
p273
sS'IS_TIME'
p274
S"<class 'gluon.validators.IS_TIME'>"
p275
sS'OPTION'
p276
S"<class 'gluon.html.OPTION'>"
p277
sS'TITLE'
p278
S"<class 'gluon.html.TITLE'>"
p279
sS'CRYPT'
p280
S"<class 'gluon.validators.CRYPT'>"
p281
sS'IS_EMPTY_OR'
p282
S"<class 'gluon.validators.IS_EMPTY_OR'>"
p283
sS'MARKMIN'
p284
S"<class 'gluon.html.MARKMIN'>"
p285
sS'__name__'
p286
S"'__restricted__'"
p287
sS'STRONG'
p288
S"<class 'gluon.html.STRONG'>"
p289
sS'COL'
p290
S"<class 'gluon.html.COL'>"
p291
sS'mc1'
p292
S"'col-md-9'"
p293
sS'mc0'
p294
S"'col-md-12'"
p295
sS'service'
p296
S'<gluon.tools.Service object>'
p297
sS'SCRIPT'
p298
S"<class 'gluon.html.SCRIPT'>"
p299
sS'TABLE'
p300
S"<class 'gluon.html.TABLE'>"
p301
sS'IS_IPV4'
p302
S"<class 'gluon.validators.IS_IPV4'>"
p303
sS'IS_LENGTH'
p304
S"<class 'gluon.validators.IS_LENGTH'>"
p305
sS'IS_IPV6'
p306
S"<class 'gluon.validators.IS_IPV6'>"
p307
sS'XML'
p308
S"<class 'gluon.html.XML'>"
p309
sS'B'
S"<class 'gluon.html.B'>"
p310
sS'IMG'
p311
S"<class 'gluon.html.IMG'>"
p312
sS'SQLTABLE'
p313
S"<class 'gluon.sqlhtml.SQLTABLE'>"
p314
sS'IS_MATCH'
p315
S"<class 'gluon.validators.IS_MATCH'>"
p316
sS'IS_ALPHANUMERIC'
p317
S"<class 'gluon.validators.IS_ALPHANUMERIC'>"
p318
sS'SPAN'
p319
S"<class 'gluon.html.SPAN'>"
p320
sS'IS_JSON'
p321
S"<class 'gluon.validators.IS_JSON'>"
p322
sS'IS_IPADDRESS'
p323
S"<class 'gluon.validators.IS_IPADDRESS'>"
p324
sS'IS_SLUG'
p325
S"<class 'gluon.validators.IS_SLUG'>"
p326
sS'thumb_profile'
p327
S'<Rows (2)>'
p328
sS'BEAUTIFY'
p329
S"<class 'gluon.html.BEAUTIFY'>"
p330
sS'META'
p331
S"<class 'gluon.html.META'>"
p332
sS'BUTTON'
p333
S"<class 'gluon.html.BUTTON'>"
p334
sS'thisprofile'
p335
S'<Rows (1)>'
p336
sS'IS_DATE'
p337
S"<class 'gluon.validators.IS_DATE'>"
p338
sS'IS_EMAIL'
p339
S"<class 'gluon.validators.IS_EMAIL'>"
p340
sS'middle_column'
p341
S"'col-md-12'"
p342
sS'IS_NOT_EMPTY'
p343
S"<class 'gluon.validators.IS_NOT_EMPTY'>"
p344
sS'IS_FLOAT_IN_RANGE'
p345
S"<class 'gluon.validators.IS_FLOAT_IN_RANGE'>"
p346
sS'TBODY'
p347
S"<class 'gluon.html.TBODY'>"
p348
sS'CAT'
p349
S"<class 'gluon.html.CAT'>"
p350
sS'Field'
p351
S"<class 'pydal.objects.Field'>"
p352
sS'mc2'
p353
S"'col-md-6'"
p354
sS'IS_LIST_OF_EMAILS'
p355
S"<class 'gluon.validators.IS_LIST_OF_EMAILS'>"
p356
sS'DIV'
p357
S"<class 'gluon.html.DIV'>"
p358
sS'LEGEND'
p359
S"<class 'gluon.html.LEGEND'>"
p360
sS'COLGROUP'
p361
S"<class 'gluon.html.COLGROUP'>"
p362
sS'DAL'
p363
S"<class 'pydal.base.DAL'>"
p364
sS'ASSIGNJS'
p365
S'<function ASSIGNJS>'
p366
sS'TR'
p367
S"<class 'gluon.html.TR'>"
p368
sS'LI'
p369
S"<class 'gluon.html.LI'>"
p370
sS'right_sidebar_enabled'
p371
g156
sS'TH'
p372
S"<class 'gluon.html.TH'>"
p373
sS'TD'
p374
S"<class 'gluon.html.TD'>"
p375
sS'PluginManager'
p376
S"<class 'gluon.tools.PluginManager'>"
p377
sS'IS_URL'
p378
S"<class 'gluon.validators.IS_URL'>"
p379
sS'A'
S"<class 'gluon.html.A'>"
p380
sS'HEAD'
p381
S"<class 'gluon.html.HEAD'>"
p382
sS'IS_DATETIME_IN_RANGE'
p383
S"<class 'gluon.validators.IS_DATETIME_IN_RANGE'>"
p384
sS'users'
p385
S"'your_name'"
p386
sS'FORM'
p387
S"<class 'gluon.html.FORM'>"
p388
sS'I'
S"<class 'gluon.html.I'>"
p389
sS'sys'
p390
S"<module 'sys' (built-in)>"
p391
sS'IS_NOT_IN_DB'
p392
S"<class 'gluon.validators.IS_NOT_IN_DB'>"
p393
sg128
S"<Storage {'body': <cStringIO.StringO object at 0...0000000A9DE898>, 'view': 'default/profile.html'}>"
p394
sS'THEAD'
p395
S"<class 'gluon.html.THEAD'>"
p396
sS'ANY_OF'
p397
S"<class 'gluon.validators.ANY_OF'>"
p398
sS'IS_NULL_OR'
p399
S"<class 'gluon.validators.IS_EMPTY_OR'>"
p400
sg56
S"<Storage {'_vars': <Storage {}>, 'function': 'pr...Users\\\\Kevin\\\\web2py\\\\applications\\\\loveslug\\\\'}>"
p401
sS'IS_EXPR'
p402
S"<class 'gluon.validators.IS_EXPR'>"
p403
sS'T'
S'<gluon.languages.translator object>'
p404
sS'IS_IN_SET'
p405
S"<class 'gluon.validators.IS_IN_SET'>"
p406
sS'IS_UPLOAD_FILENAME'
p407
S"<class 'gluon.validators.IS_UPLOAD_FILENAME'>"
p408
sS'TT'
p409
S"<class 'gluon.html.TT'>"
p410
sS'IS_DECIMAL_IN_RANGE'
p411
S"<class 'gluon.validators.IS_DECIMAL_IN_RANGE'>"
p412
sssS'traceback'
p413
S'Traceback (most recent call last):\n  File "C:\\Users\\Kevin\\web2py\\gluon\\restricted.py", line 227, in restricted\n    exec ccode in environment\n  File "C:\\Users\\Kevin\\web2py\\applications\\loveslug\\views\\default/profile.html", line 127, in <module>\n    \'{{=URL(\'vote\', user_signature=True)}}\', // URL for the AJAX call\nTypeError: string indices must be integers, not str\n'
p414
s.